
CAR2_JOYSTICK2_RC_CAR.elf:     file format elf32-littlearm

Sections:
Idx Name          Size      VMA       LMA       File off  Algn
  0 .isr_vector   00000198  08000000  08000000  00001000  2**0
                  CONTENTS, ALLOC, LOAD, READONLY, DATA
  1 .text         000030f0  080001a0  080001a0  000011a0  2**4
                  CONTENTS, ALLOC, LOAD, READONLY, CODE
  2 .rodata       00000098  08003290  08003290  00004290  2**0
                  CONTENTS, ALLOC, LOAD, READONLY, DATA
  3 .ARM.extab    00000000  08003328  08003328  0000505c  2**0
                  CONTENTS, READONLY
  4 .ARM          00000008  08003328  08003328  00004328  2**2
                  CONTENTS, ALLOC, LOAD, READONLY, DATA
  5 .preinit_array 00000000  08003330  08003330  0000505c  2**0
                  CONTENTS, ALLOC, LOAD, DATA
  6 .init_array   00000004  08003330  08003330  00004330  2**2
                  CONTENTS, ALLOC, LOAD, READONLY, DATA
  7 .fini_array   00000004  08003334  08003334  00004334  2**2
                  CONTENTS, ALLOC, LOAD, READONLY, DATA
  8 .data         0000005c  20000000  08003338  00005000  2**2
                  CONTENTS, ALLOC, LOAD, DATA
  9 .bss          000002f4  2000005c  08003394  0000505c  2**2
                  ALLOC
 10 ._user_heap_stack 00000600  20000350  08003394  00005350  2**0
                  ALLOC
 11 .ARM.attributes 00000030  00000000  00000000  0000505c  2**0
                  CONTENTS, READONLY
 12 .comment      00000043  00000000  00000000  0000508c  2**0
                  CONTENTS, READONLY
 13 .debug_frame  00000668  00000000  00000000  000050d0  2**2
                  CONTENTS, READONLY, DEBUGGING, OCTETS

Disassembly of section .text:

080001a0 <__do_global_dtors_aux>:
 80001a0:	b510      	push	{r4, lr}
 80001a2:	4c05      	ldr	r4, [pc, #20]	@ (80001b8 <__do_global_dtors_aux+0x18>)
 80001a4:	7823      	ldrb	r3, [r4, #0]
 80001a6:	b933      	cbnz	r3, 80001b6 <__do_global_dtors_aux+0x16>
 80001a8:	4b04      	ldr	r3, [pc, #16]	@ (80001bc <__do_global_dtors_aux+0x1c>)
 80001aa:	b113      	cbz	r3, 80001b2 <__do_global_dtors_aux+0x12>
 80001ac:	4804      	ldr	r0, [pc, #16]	@ (80001c0 <__do_global_dtors_aux+0x20>)
 80001ae:	f3af 8000 	nop.w
 80001b2:	2301      	movs	r3, #1
 80001b4:	7023      	strb	r3, [r4, #0]
 80001b6:	bd10      	pop	{r4, pc}
 80001b8:	2000005c 	.word	0x2000005c
 80001bc:	00000000 	.word	0x00000000
 80001c0:	08003278 	.word	0x08003278

080001c4 <frame_dummy>:
 80001c4:	b508      	push	{r3, lr}
 80001c6:	4b03      	ldr	r3, [pc, #12]	@ (80001d4 <frame_dummy+0x10>)
 80001c8:	b11b      	cbz	r3, 80001d2 <frame_dummy+0xe>
 80001ca:	4903      	ldr	r1, [pc, #12]	@ (80001d8 <frame_dummy+0x14>)
 80001cc:	4803      	ldr	r0, [pc, #12]	@ (80001dc <frame_dummy+0x18>)
 80001ce:	f3af 8000 	nop.w
 80001d2:	bd08      	pop	{r3, pc}
 80001d4:	00000000 	.word	0x00000000
 80001d8:	20000060 	.word	0x20000060
 80001dc:	08003278 	.word	0x08003278

080001e0 <strlen>:
 80001e0:	4603      	mov	r3, r0
 80001e2:	f813 2b01 	ldrb.w	r2, [r3], #1
 80001e6:	2a00      	cmp	r2, #0
 80001e8:	d1fb      	bne.n	80001e2 <strlen+0x2>
 80001ea:	1a18      	subs	r0, r3, r0
 80001ec:	3801      	subs	r0, #1
 80001ee:	4770      	bx	lr

080001f0 <memchr>:
 80001f0:	f001 01ff 	and.w	r1, r1, #255	@ 0xff
 80001f4:	2a10      	cmp	r2, #16
 80001f6:	db2b      	blt.n	8000250 <memchr+0x60>
 80001f8:	f010 0f07 	tst.w	r0, #7
 80001fc:	d008      	beq.n	8000210 <memchr+0x20>
 80001fe:	f810 3b01 	ldrb.w	r3, [r0], #1
 8000202:	3a01      	subs	r2, #1
 8000204:	428b      	cmp	r3, r1
 8000206:	d02d      	beq.n	8000264 <memchr+0x74>
 8000208:	f010 0f07 	tst.w	r0, #7
 800020c:	b342      	cbz	r2, 8000260 <memchr+0x70>
 800020e:	d1f6      	bne.n	80001fe <memchr+0xe>
 8000210:	b4f0      	push	{r4, r5, r6, r7}
 8000212:	ea41 2101 	orr.w	r1, r1, r1, lsl #8
 8000216:	ea41 4101 	orr.w	r1, r1, r1, lsl #16
 800021a:	f022 0407 	bic.w	r4, r2, #7
 800021e:	f07f 0700 	mvns.w	r7, #0
 8000222:	2300      	movs	r3, #0
 8000224:	e8f0 5602 	ldrd	r5, r6, [r0], #8
 8000228:	3c08      	subs	r4, #8
 800022a:	ea85 0501 	eor.w	r5, r5, r1
 800022e:	ea86 0601 	eor.w	r6, r6, r1
 8000232:	fa85 f547 	uadd8	r5, r5, r7
 8000236:	faa3 f587 	sel	r5, r3, r7
 800023a:	fa86 f647 	uadd8	r6, r6, r7
 800023e:	faa5 f687 	sel	r6, r5, r7
 8000242:	b98e      	cbnz	r6, 8000268 <memchr+0x78>
 8000244:	d1ee      	bne.n	8000224 <memchr+0x34>
 8000246:	bcf0      	pop	{r4, r5, r6, r7}
 8000248:	f001 01ff 	and.w	r1, r1, #255	@ 0xff
 800024c:	f002 0207 	and.w	r2, r2, #7
 8000250:	b132      	cbz	r2, 8000260 <memchr+0x70>
 8000252:	f810 3b01 	ldrb.w	r3, [r0], #1
 8000256:	3a01      	subs	r2, #1
 8000258:	ea83 0301 	eor.w	r3, r3, r1
 800025c:	b113      	cbz	r3, 8000264 <memchr+0x74>
 800025e:	d1f8      	bne.n	8000252 <memchr+0x62>
 8000260:	2000      	movs	r0, #0
 8000262:	4770      	bx	lr
 8000264:	3801      	subs	r0, #1
 8000266:	4770      	bx	lr
 8000268:	2d00      	cmp	r5, #0
 800026a:	bf06      	itte	eq
 800026c:	4635      	moveq	r5, r6
 800026e:	3803      	subeq	r0, #3
 8000270:	3807      	subne	r0, #7
 8000272:	f015 0f01 	tst.w	r5, #1
 8000276:	d107      	bne.n	8000288 <memchr+0x98>
 8000278:	3001      	adds	r0, #1
 800027a:	f415 7f80 	tst.w	r5, #256	@ 0x100
 800027e:	bf02      	ittt	eq
 8000280:	3001      	addeq	r0, #1
 8000282:	f415 3fc0 	tsteq.w	r5, #98304	@ 0x18000
 8000286:	3001      	addeq	r0, #1
 8000288:	bcf0      	pop	{r4, r5, r6, r7}
 800028a:	3801      	subs	r0, #1
 800028c:	4770      	bx	lr
 800028e:	bf00      	nop

08000290 <__aeabi_uldivmod>:
 8000290:	b953      	cbnz	r3, 80002a8 <__aeabi_uldivmod+0x18>
 8000292:	b94a      	cbnz	r2, 80002a8 <__aeabi_uldivmod+0x18>
 8000294:	2900      	cmp	r1, #0
 8000296:	bf08      	it	eq
 8000298:	2800      	cmpeq	r0, #0
 800029a:	bf1c      	itt	ne
 800029c:	f04f 31ff 	movne.w	r1, #4294967295	@ 0xffffffff
 80002a0:	f04f 30ff 	movne.w	r0, #4294967295	@ 0xffffffff
 80002a4:	f000 b988 	b.w	80005b8 <__aeabi_idiv0>
 80002a8:	f1ad 0c08 	sub.w	ip, sp, #8
 80002ac:	e96d ce04 	strd	ip, lr, [sp, #-16]!
 80002b0:	f000 f806 	bl	80002c0 <__udivmoddi4>
 80002b4:	f8dd e004 	ldr.w	lr, [sp, #4]
 80002b8:	e9dd 2302 	ldrd	r2, r3, [sp, #8]
 80002bc:	b004      	add	sp, #16
 80002be:	4770      	bx	lr

080002c0 <__udivmoddi4>:
 80002c0:	e92d 47f0 	stmdb	sp!, {r4, r5, r6, r7, r8, r9, sl, lr}
 80002c4:	9d08      	ldr	r5, [sp, #32]
 80002c6:	468e      	mov	lr, r1
 80002c8:	4604      	mov	r4, r0
 80002ca:	4688      	mov	r8, r1
 80002cc:	2b00      	cmp	r3, #0
 80002ce:	d14a      	bne.n	8000366 <__udivmoddi4+0xa6>
 80002d0:	428a      	cmp	r2, r1
 80002d2:	4617      	mov	r7, r2
 80002d4:	d962      	bls.n	800039c <__udivmoddi4+0xdc>
 80002d6:	fab2 f682 	clz	r6, r2
 80002da:	b14e      	cbz	r6, 80002f0 <__udivmoddi4+0x30>
 80002dc:	f1c6 0320 	rsb	r3, r6, #32
 80002e0:	fa01 f806 	lsl.w	r8, r1, r6
 80002e4:	fa20 f303 	lsr.w	r3, r0, r3
 80002e8:	40b7      	lsls	r7, r6
 80002ea:	ea43 0808 	orr.w	r8, r3, r8
 80002ee:	40b4      	lsls	r4, r6
 80002f0:	ea4f 4e17 	mov.w	lr, r7, lsr #16
 80002f4:	fa1f fc87 	uxth.w	ip, r7
 80002f8:	fbb8 f1fe 	udiv	r1, r8, lr
 80002fc:	0c23      	lsrs	r3, r4, #16
 80002fe:	fb0e 8811 	mls	r8, lr, r1, r8
 8000302:	ea43 4308 	orr.w	r3, r3, r8, lsl #16
 8000306:	fb01 f20c 	mul.w	r2, r1, ip
 800030a:	429a      	cmp	r2, r3
 800030c:	d909      	bls.n	8000322 <__udivmoddi4+0x62>
 800030e:	18fb      	adds	r3, r7, r3
 8000310:	f101 30ff 	add.w	r0, r1, #4294967295	@ 0xffffffff
 8000314:	f080 80ea 	bcs.w	80004ec <__udivmoddi4+0x22c>
 8000318:	429a      	cmp	r2, r3
 800031a:	f240 80e7 	bls.w	80004ec <__udivmoddi4+0x22c>
 800031e:	3902      	subs	r1, #2
 8000320:	443b      	add	r3, r7
 8000322:	1a9a      	subs	r2, r3, r2
 8000324:	b2a3      	uxth	r3, r4
 8000326:	fbb2 f0fe 	udiv	r0, r2, lr
 800032a:	fb0e 2210 	mls	r2, lr, r0, r2
 800032e:	ea43 4302 	orr.w	r3, r3, r2, lsl #16
 8000332:	fb00 fc0c 	mul.w	ip, r0, ip
 8000336:	459c      	cmp	ip, r3
 8000338:	d909      	bls.n	800034e <__udivmoddi4+0x8e>
 800033a:	18fb      	adds	r3, r7, r3
 800033c:	f100 32ff 	add.w	r2, r0, #4294967295	@ 0xffffffff
 8000340:	f080 80d6 	bcs.w	80004f0 <__udivmoddi4+0x230>
 8000344:	459c      	cmp	ip, r3
 8000346:	f240 80d3 	bls.w	80004f0 <__udivmoddi4+0x230>
 800034a:	443b      	add	r3, r7
 800034c:	3802      	subs	r0, #2
 800034e:	ea40 4001 	orr.w	r0, r0, r1, lsl #16
 8000352:	eba3 030c 	sub.w	r3, r3, ip
 8000356:	2100      	movs	r1, #0
 8000358:	b11d      	cbz	r5, 8000362 <__udivmoddi4+0xa2>
 800035a:	40f3      	lsrs	r3, r6
 800035c:	2200      	movs	r2, #0
 800035e:	e9c5 3200 	strd	r3, r2, [r5]
 8000362:	e8bd 87f0 	ldmia.w	sp!, {r4, r5, r6, r7, r8, r9, sl, pc}
 8000366:	428b      	cmp	r3, r1
 8000368:	d905      	bls.n	8000376 <__udivmoddi4+0xb6>
 800036a:	b10d      	cbz	r5, 8000370 <__udivmoddi4+0xb0>
 800036c:	e9c5 0100 	strd	r0, r1, [r5]
 8000370:	2100      	movs	r1, #0
 8000372:	4608      	mov	r0, r1
 8000374:	e7f5      	b.n	8000362 <__udivmoddi4+0xa2>
 8000376:	fab3 f183 	clz	r1, r3
 800037a:	2900      	cmp	r1, #0
 800037c:	d146      	bne.n	800040c <__udivmoddi4+0x14c>
 800037e:	4573      	cmp	r3, lr
 8000380:	d302      	bcc.n	8000388 <__udivmoddi4+0xc8>
 8000382:	4282      	cmp	r2, r0
 8000384:	f200 8105 	bhi.w	8000592 <__udivmoddi4+0x2d2>
 8000388:	1a84      	subs	r4, r0, r2
 800038a:	eb6e 0203 	sbc.w	r2, lr, r3
 800038e:	2001      	movs	r0, #1
 8000390:	4690      	mov	r8, r2
 8000392:	2d00      	cmp	r5, #0
 8000394:	d0e5      	beq.n	8000362 <__udivmoddi4+0xa2>
 8000396:	e9c5 4800 	strd	r4, r8, [r5]
 800039a:	e7e2      	b.n	8000362 <__udivmoddi4+0xa2>
 800039c:	2a00      	cmp	r2, #0
 800039e:	f000 8090 	beq.w	80004c2 <__udivmoddi4+0x202>
 80003a2:	fab2 f682 	clz	r6, r2
 80003a6:	2e00      	cmp	r6, #0
 80003a8:	f040 80a4 	bne.w	80004f4 <__udivmoddi4+0x234>
 80003ac:	1a8a      	subs	r2, r1, r2
 80003ae:	0c03      	lsrs	r3, r0, #16
 80003b0:	ea4f 4e17 	mov.w	lr, r7, lsr #16
 80003b4:	b280      	uxth	r0, r0
 80003b6:	b2bc      	uxth	r4, r7
 80003b8:	2101      	movs	r1, #1
 80003ba:	fbb2 fcfe 	udiv	ip, r2, lr
 80003be:	fb0e 221c 	mls	r2, lr, ip, r2
 80003c2:	ea43 4302 	orr.w	r3, r3, r2, lsl #16
 80003c6:	fb04 f20c 	mul.w	r2, r4, ip
 80003ca:	429a      	cmp	r2, r3
 80003cc:	d907      	bls.n	80003de <__udivmoddi4+0x11e>
 80003ce:	18fb      	adds	r3, r7, r3
 80003d0:	f10c 38ff 	add.w	r8, ip, #4294967295	@ 0xffffffff
 80003d4:	d202      	bcs.n	80003dc <__udivmoddi4+0x11c>
 80003d6:	429a      	cmp	r2, r3
 80003d8:	f200 80e0 	bhi.w	800059c <__udivmoddi4+0x2dc>
 80003dc:	46c4      	mov	ip, r8
 80003de:	1a9b      	subs	r3, r3, r2
 80003e0:	fbb3 f2fe 	udiv	r2, r3, lr
 80003e4:	fb0e 3312 	mls	r3, lr, r2, r3
 80003e8:	ea40 4303 	orr.w	r3, r0, r3, lsl #16
 80003ec:	fb02 f404 	mul.w	r4, r2, r4
 80003f0:	429c      	cmp	r4, r3
 80003f2:	d907      	bls.n	8000404 <__udivmoddi4+0x144>
 80003f4:	18fb      	adds	r3, r7, r3
 80003f6:	f102 30ff 	add.w	r0, r2, #4294967295	@ 0xffffffff
 80003fa:	d202      	bcs.n	8000402 <__udivmoddi4+0x142>
 80003fc:	429c      	cmp	r4, r3
 80003fe:	f200 80ca 	bhi.w	8000596 <__udivmoddi4+0x2d6>
 8000402:	4602      	mov	r2, r0
 8000404:	1b1b      	subs	r3, r3, r4
 8000406:	ea42 400c 	orr.w	r0, r2, ip, lsl #16
 800040a:	e7a5      	b.n	8000358 <__udivmoddi4+0x98>
 800040c:	f1c1 0620 	rsb	r6, r1, #32
 8000410:	408b      	lsls	r3, r1
 8000412:	fa22 f706 	lsr.w	r7, r2, r6
 8000416:	431f      	orrs	r7, r3
 8000418:	fa0e f401 	lsl.w	r4, lr, r1
 800041c:	fa20 f306 	lsr.w	r3, r0, r6
 8000420:	fa2e fe06 	lsr.w	lr, lr, r6
 8000424:	ea4f 4917 	mov.w	r9, r7, lsr #16
 8000428:	4323      	orrs	r3, r4
 800042a:	fa00 f801 	lsl.w	r8, r0, r1
 800042e:	fa1f fc87 	uxth.w	ip, r7
 8000432:	fbbe f0f9 	udiv	r0, lr, r9
 8000436:	0c1c      	lsrs	r4, r3, #16
 8000438:	fb09 ee10 	mls	lr, r9, r0, lr
 800043c:	ea44 440e 	orr.w	r4, r4, lr, lsl #16
 8000440:	fb00 fe0c 	mul.w	lr, r0, ip
 8000444:	45a6      	cmp	lr, r4
 8000446:	fa02 f201 	lsl.w	r2, r2, r1
 800044a:	d909      	bls.n	8000460 <__udivmoddi4+0x1a0>
 800044c:	193c      	adds	r4, r7, r4
 800044e:	f100 3aff 	add.w	sl, r0, #4294967295	@ 0xffffffff
 8000452:	f080 809c 	bcs.w	800058e <__udivmoddi4+0x2ce>
 8000456:	45a6      	cmp	lr, r4
 8000458:	f240 8099 	bls.w	800058e <__udivmoddi4+0x2ce>
 800045c:	3802      	subs	r0, #2
 800045e:	443c      	add	r4, r7
 8000460:	eba4 040e 	sub.w	r4, r4, lr
 8000464:	fa1f fe83 	uxth.w	lr, r3
 8000468:	fbb4 f3f9 	udiv	r3, r4, r9
 800046c:	fb09 4413 	mls	r4, r9, r3, r4
 8000470:	ea4e 4404 	orr.w	r4, lr, r4, lsl #16
 8000474:	fb03 fc0c 	mul.w	ip, r3, ip
 8000478:	45a4      	cmp	ip, r4
 800047a:	d908      	bls.n	800048e <__udivmoddi4+0x1ce>
 800047c:	193c      	adds	r4, r7, r4
 800047e:	f103 3eff 	add.w	lr, r3, #4294967295	@ 0xffffffff
 8000482:	f080 8082 	bcs.w	800058a <__udivmoddi4+0x2ca>
 8000486:	45a4      	cmp	ip, r4
 8000488:	d97f      	bls.n	800058a <__udivmoddi4+0x2ca>
 800048a:	3b02      	subs	r3, #2
 800048c:	443c      	add	r4, r7
 800048e:	ea43 4000 	orr.w	r0, r3, r0, lsl #16
 8000492:	eba4 040c 	sub.w	r4, r4, ip
 8000496:	fba0 ec02 	umull	lr, ip, r0, r2
 800049a:	4564      	cmp	r4, ip
 800049c:	4673      	mov	r3, lr
 800049e:	46e1      	mov	r9, ip
 80004a0:	d362      	bcc.n	8000568 <__udivmoddi4+0x2a8>
 80004a2:	d05f      	beq.n	8000564 <__udivmoddi4+0x2a4>
 80004a4:	b15d      	cbz	r5, 80004be <__udivmoddi4+0x1fe>
 80004a6:	ebb8 0203 	subs.w	r2, r8, r3
 80004aa:	eb64 0409 	sbc.w	r4, r4, r9
 80004ae:	fa04 f606 	lsl.w	r6, r4, r6
 80004b2:	fa22 f301 	lsr.w	r3, r2, r1
 80004b6:	431e      	orrs	r6, r3
 80004b8:	40cc      	lsrs	r4, r1
 80004ba:	e9c5 6400 	strd	r6, r4, [r5]
 80004be:	2100      	movs	r1, #0
 80004c0:	e74f      	b.n	8000362 <__udivmoddi4+0xa2>
 80004c2:	fbb1 fcf2 	udiv	ip, r1, r2
 80004c6:	0c01      	lsrs	r1, r0, #16
 80004c8:	ea41 410e 	orr.w	r1, r1, lr, lsl #16
 80004cc:	b280      	uxth	r0, r0
 80004ce:	ea40 4201 	orr.w	r2, r0, r1, lsl #16
 80004d2:	463b      	mov	r3, r7
 80004d4:	4638      	mov	r0, r7
 80004d6:	463c      	mov	r4, r7
 80004d8:	46b8      	mov	r8, r7
 80004da:	46be      	mov	lr, r7
 80004dc:	2620      	movs	r6, #32
 80004de:	fbb1 f1f7 	udiv	r1, r1, r7
 80004e2:	eba2 0208 	sub.w	r2, r2, r8
 80004e6:	ea41 410c 	orr.w	r1, r1, ip, lsl #16
 80004ea:	e766      	b.n	80003ba <__udivmoddi4+0xfa>
 80004ec:	4601      	mov	r1, r0
 80004ee:	e718      	b.n	8000322 <__udivmoddi4+0x62>
 80004f0:	4610      	mov	r0, r2
 80004f2:	e72c      	b.n	800034e <__udivmoddi4+0x8e>
 80004f4:	f1c6 0220 	rsb	r2, r6, #32
 80004f8:	fa2e f302 	lsr.w	r3, lr, r2
 80004fc:	40b7      	lsls	r7, r6
 80004fe:	40b1      	lsls	r1, r6
 8000500:	fa20 f202 	lsr.w	r2, r0, r2
 8000504:	ea4f 4e17 	mov.w	lr, r7, lsr #16
 8000508:	430a      	orrs	r2, r1
 800050a:	fbb3 f8fe 	udiv	r8, r3, lr
 800050e:	b2bc      	uxth	r4, r7
 8000510:	fb0e 3318 	mls	r3, lr, r8, r3
 8000514:	0c11      	lsrs	r1, r2, #16
 8000516:	ea41 4103 	orr.w	r1, r1, r3, lsl #16
 800051a:	fb08 f904 	mul.w	r9, r8, r4
 800051e:	40b0      	lsls	r0, r6
 8000520:	4589      	cmp	r9, r1
 8000522:	ea4f 4310 	mov.w	r3, r0, lsr #16
 8000526:	b280      	uxth	r0, r0
 8000528:	d93e      	bls.n	80005a8 <__udivmoddi4+0x2e8>
 800052a:	1879      	adds	r1, r7, r1
 800052c:	f108 3cff 	add.w	ip, r8, #4294967295	@ 0xffffffff
 8000530:	d201      	bcs.n	8000536 <__udivmoddi4+0x276>
 8000532:	4589      	cmp	r9, r1
 8000534:	d81f      	bhi.n	8000576 <__udivmoddi4+0x2b6>
 8000536:	eba1 0109 	sub.w	r1, r1, r9
 800053a:	fbb1 f9fe 	udiv	r9, r1, lr
 800053e:	fb09 f804 	mul.w	r8, r9, r4
 8000542:	fb0e 1119 	mls	r1, lr, r9, r1
 8000546:	b292      	uxth	r2, r2
 8000548:	ea42 4201 	orr.w	r2, r2, r1, lsl #16
 800054c:	4542      	cmp	r2, r8
 800054e:	d229      	bcs.n	80005a4 <__udivmoddi4+0x2e4>
 8000550:	18ba      	adds	r2, r7, r2
 8000552:	f109 31ff 	add.w	r1, r9, #4294967295	@ 0xffffffff
 8000556:	d2c4      	bcs.n	80004e2 <__udivmoddi4+0x222>
 8000558:	4542      	cmp	r2, r8
 800055a:	d2c2      	bcs.n	80004e2 <__udivmoddi4+0x222>
 800055c:	f1a9 0102 	sub.w	r1, r9, #2
 8000560:	443a      	add	r2, r7
 8000562:	e7be      	b.n	80004e2 <__udivmoddi4+0x222>
 8000564:	45f0      	cmp	r8, lr
 8000566:	d29d      	bcs.n	80004a4 <__udivmoddi4+0x1e4>
 8000568:	ebbe 0302 	subs.w	r3, lr, r2
 800056c:	eb6c 0c07 	sbc.w	ip, ip, r7
 8000570:	3801      	subs	r0, #1
 8000572:	46e1      	mov	r9, ip
 8000574:	e796      	b.n	80004a4 <__udivmoddi4+0x1e4>
 8000576:	eba7 0909 	sub.w	r9, r7, r9
 800057a:	4449      	add	r1, r9
 800057c:	f1a8 0c02 	sub.w	ip, r8, #2
 8000580:	fbb1 f9fe 	udiv	r9, r1, lr
 8000584:	fb09 f804 	mul.w	r8, r9, r4
 8000588:	e7db      	b.n	8000542 <__udivmoddi4+0x282>
 800058a:	4673      	mov	r3, lr
 800058c:	e77f      	b.n	800048e <__udivmoddi4+0x1ce>
 800058e:	4650      	mov	r0, sl
 8000590:	e766      	b.n	8000460 <__udivmoddi4+0x1a0>
 8000592:	4608      	mov	r0, r1
 8000594:	e6fd      	b.n	8000392 <__udivmoddi4+0xd2>
 8000596:	443b      	add	r3, r7
 8000598:	3a02      	subs	r2, #2
 800059a:	e733      	b.n	8000404 <__udivmoddi4+0x144>
 800059c:	f1ac 0c02 	sub.w	ip, ip, #2
 80005a0:	443b      	add	r3, r7
 80005a2:	e71c      	b.n	80003de <__udivmoddi4+0x11e>
 80005a4:	4649      	mov	r1, r9
 80005a6:	e79c      	b.n	80004e2 <__udivmoddi4+0x222>
 80005a8:	eba1 0109 	sub.w	r1, r1, r9
 80005ac:	46c4      	mov	ip, r8
 80005ae:	fbb1 f9fe 	udiv	r9, r1, lr
 80005b2:	fb09 f804 	mul.w	r8, r9, r4
 80005b6:	e7c4      	b.n	8000542 <__udivmoddi4+0x282>

080005b8 <__aeabi_idiv0>:
 80005b8:	4770      	bx	lr
 80005ba:	bf00      	nop

080005bc <MX_ADC1_Init>:
 80005bc:	b530      	push	{r4, r5, lr}
 80005be:	b085      	sub	sp, #20
 80005c0:	2210      	movs	r2, #16
 80005c2:	2100      	movs	r1, #0
 80005c4:	4668      	mov	r0, sp
 80005c6:	f002 f9d9 	bl	800297c <memset>
 80005ca:	4813      	ldr	r0, [pc, #76]	@ (8000618 <MX_ADC1_Init+0x5c>)
 80005cc:	4a13      	ldr	r2, [pc, #76]	@ (800061c <MX_ADC1_Init+0x60>)
 80005ce:	f44f 3380 	mov.w	r3, #65536	@ 0x10000
 80005d2:	2400      	movs	r4, #0
 80005d4:	2501      	movs	r5, #1
 80005d6:	e9c0 2300 	strd	r2, r3, [r0]
 80005da:	4b11      	ldr	r3, [pc, #68]	@ (8000620 <MX_ADC1_Init+0x64>)
 80005dc:	6084      	str	r4, [r0, #8]
 80005de:	6104      	str	r4, [r0, #16]
 80005e0:	7604      	strb	r4, [r0, #24]
 80005e2:	f880 4020 	strb.w	r4, [r0, #32]
 80005e6:	62c4      	str	r4, [r0, #44]	@ 0x2c
 80005e8:	6283      	str	r3, [r0, #40]	@ 0x28
 80005ea:	60c4      	str	r4, [r0, #12]
 80005ec:	61c5      	str	r5, [r0, #28]
 80005ee:	f880 4030 	strb.w	r4, [r0, #48]	@ 0x30
 80005f2:	6145      	str	r5, [r0, #20]
 80005f4:	f000 fd26 	bl	8001044 <HAL_ADC_Init>
 80005f8:	b108      	cbz	r0, 80005fe <MX_ADC1_Init+0x42>
 80005fa:	f000 f9aa 	bl	8000952 <Error_Handler>
 80005fe:	4806      	ldr	r0, [pc, #24]	@ (8000618 <MX_ADC1_Init+0x5c>)
 8000600:	9402      	str	r4, [sp, #8]
 8000602:	4669      	mov	r1, sp
 8000604:	e9cd 4500 	strd	r4, r5, [sp]
 8000608:	f000 fe80 	bl	800130c <HAL_ADC_ConfigChannel>
 800060c:	b108      	cbz	r0, 8000612 <MX_ADC1_Init+0x56>
 800060e:	f000 f9a0 	bl	8000952 <Error_Handler>
 8000612:	b005      	add	sp, #20
 8000614:	bd30      	pop	{r4, r5, pc}
 8000616:	bf00      	nop
 8000618:	200000d8 	.word	0x200000d8
 800061c:	40012000 	.word	0x40012000
 8000620:	0f000001 	.word	0x0f000001

08000624 <HAL_ADC_MspInit>:
 8000624:	b570      	push	{r4, r5, r6, lr}
 8000626:	4606      	mov	r6, r0
 8000628:	b088      	sub	sp, #32
 800062a:	2214      	movs	r2, #20
 800062c:	2100      	movs	r1, #0
 800062e:	a803      	add	r0, sp, #12
 8000630:	f002 f9a4 	bl	800297c <memset>
 8000634:	6832      	ldr	r2, [r6, #0]
 8000636:	4b1e      	ldr	r3, [pc, #120]	@ (80006b0 <HAL_ADC_MspInit+0x8c>)
 8000638:	429a      	cmp	r2, r3
 800063a:	d137      	bne.n	80006ac <HAL_ADC_MspInit+0x88>
 800063c:	2500      	movs	r5, #0
 800063e:	f503 338c 	add.w	r3, r3, #71680	@ 0x11800
 8000642:	9501      	str	r5, [sp, #4]
 8000644:	6c5a      	ldr	r2, [r3, #68]	@ 0x44
 8000646:	481b      	ldr	r0, [pc, #108]	@ (80006b4 <HAL_ADC_MspInit+0x90>)
 8000648:	4c1b      	ldr	r4, [pc, #108]	@ (80006b8 <HAL_ADC_MspInit+0x94>)
 800064a:	f442 7280 	orr.w	r2, r2, #256	@ 0x100
 800064e:	645a      	str	r2, [r3, #68]	@ 0x44
 8000650:	6c5a      	ldr	r2, [r3, #68]	@ 0x44
 8000652:	f402 7280 	and.w	r2, r2, #256	@ 0x100
 8000656:	9201      	str	r2, [sp, #4]
 8000658:	9a01      	ldr	r2, [sp, #4]
 800065a:	9502      	str	r5, [sp, #8]
 800065c:	6b1a      	ldr	r2, [r3, #48]	@ 0x30
 800065e:	f042 0201 	orr.w	r2, r2, #1
 8000662:	631a      	str	r2, [r3, #48]	@ 0x30
 8000664:	6b1b      	ldr	r3, [r3, #48]	@ 0x30
 8000666:	f003 0301 	and.w	r3, r3, #1
 800066a:	9302      	str	r3, [sp, #8]
 800066c:	9b02      	ldr	r3, [sp, #8]
 800066e:	a903      	add	r1, sp, #12
 8000670:	2303      	movs	r3, #3
 8000672:	e9cd 3303 	strd	r3, r3, [sp, #12]
 8000676:	f001 f8ed 	bl	8001854 <HAL_GPIO_Init>
 800067a:	4b10      	ldr	r3, [pc, #64]	@ (80006bc <HAL_ADC_MspInit+0x98>)
 800067c:	f44f 6280 	mov.w	r2, #1024	@ 0x400
 8000680:	e9c4 3500 	strd	r3, r5, [r4]
 8000684:	f44f 6300 	mov.w	r3, #2048	@ 0x800
 8000688:	e9c4 2304 	strd	r2, r3, [r4, #16]
 800068c:	4620      	mov	r0, r4
 800068e:	f44f 5300 	mov.w	r3, #8192	@ 0x2000
 8000692:	e9c4 5502 	strd	r5, r5, [r4, #8]
 8000696:	e9c4 3506 	strd	r3, r5, [r4, #24]
 800069a:	e9c4 5508 	strd	r5, r5, [r4, #32]
 800069e:	f000 ff4d 	bl	800153c <HAL_DMA_Init>
 80006a2:	b108      	cbz	r0, 80006a8 <HAL_ADC_MspInit+0x84>
 80006a4:	f000 f955 	bl	8000952 <Error_Handler>
 80006a8:	63b4      	str	r4, [r6, #56]	@ 0x38
 80006aa:	63a6      	str	r6, [r4, #56]	@ 0x38
 80006ac:	b008      	add	sp, #32
 80006ae:	bd70      	pop	{r4, r5, r6, pc}
 80006b0:	40012000 	.word	0x40012000
 80006b4:	40020000 	.word	0x40020000
 80006b8:	20000078 	.word	0x20000078
 80006bc:	40026410 	.word	0x40026410

080006c0 <MX_DMA_Init>:
 80006c0:	b507      	push	{r0, r1, r2, lr}
 80006c2:	4b0b      	ldr	r3, [pc, #44]	@ (80006f0 <MX_DMA_Init+0x30>)
 80006c4:	2200      	movs	r2, #0
 80006c6:	9201      	str	r2, [sp, #4]
 80006c8:	6b19      	ldr	r1, [r3, #48]	@ 0x30
 80006ca:	f441 0180 	orr.w	r1, r1, #4194304	@ 0x400000
 80006ce:	6319      	str	r1, [r3, #48]	@ 0x30
 80006d0:	6b1b      	ldr	r3, [r3, #48]	@ 0x30
 80006d2:	f403 0380 	and.w	r3, r3, #4194304	@ 0x400000
 80006d6:	9301      	str	r3, [sp, #4]
 80006d8:	4611      	mov	r1, r2
 80006da:	2038      	movs	r0, #56	@ 0x38
 80006dc:	9b01      	ldr	r3, [sp, #4]
 80006de:	f000 fec3 	bl	8001468 <HAL_NVIC_SetPriority>
 80006e2:	2038      	movs	r0, #56	@ 0x38
 80006e4:	b003      	add	sp, #12
 80006e6:	f85d eb04 	ldr.w	lr, [sp], #4
 80006ea:	f000 beef 	b.w	80014cc <HAL_NVIC_EnableIRQ>
 80006ee:	bf00      	nop
 80006f0:	40023800 	.word	0x40023800

080006f4 <MX_GPIO_Init>:
 80006f4:	e92d 41f0 	stmdb	sp!, {r4, r5, r6, r7, r8, lr}
 80006f8:	2214      	movs	r2, #20
 80006fa:	b08a      	sub	sp, #40	@ 0x28
 80006fc:	eb0d 0002 	add.w	r0, sp, r2
 8000700:	2100      	movs	r1, #0
 8000702:	f002 f93b 	bl	800297c <memset>
 8000706:	2400      	movs	r4, #0
 8000708:	4b2c      	ldr	r3, [pc, #176]	@ (80007bc <MX_GPIO_Init+0xc8>)
 800070a:	9401      	str	r4, [sp, #4]
 800070c:	6b1a      	ldr	r2, [r3, #48]	@ 0x30
 800070e:	f8df 80b8 	ldr.w	r8, [pc, #184]	@ 80007c8 <MX_GPIO_Init+0xd4>
 8000712:	4f2b      	ldr	r7, [pc, #172]	@ (80007c0 <MX_GPIO_Init+0xcc>)
 8000714:	4e2b      	ldr	r6, [pc, #172]	@ (80007c4 <MX_GPIO_Init+0xd0>)
 8000716:	f042 0280 	orr.w	r2, r2, #128	@ 0x80
 800071a:	631a      	str	r2, [r3, #48]	@ 0x30
 800071c:	6b1a      	ldr	r2, [r3, #48]	@ 0x30
 800071e:	f002 0280 	and.w	r2, r2, #128	@ 0x80
 8000722:	9201      	str	r2, [sp, #4]
 8000724:	9a01      	ldr	r2, [sp, #4]
 8000726:	9402      	str	r4, [sp, #8]
 8000728:	6b1a      	ldr	r2, [r3, #48]	@ 0x30
 800072a:	f042 0204 	orr.w	r2, r2, #4
 800072e:	631a      	str	r2, [r3, #48]	@ 0x30
 8000730:	6b1a      	ldr	r2, [r3, #48]	@ 0x30
 8000732:	f002 0204 	and.w	r2, r2, #4
 8000736:	9202      	str	r2, [sp, #8]
 8000738:	9a02      	ldr	r2, [sp, #8]
 800073a:	9403      	str	r4, [sp, #12]
 800073c:	6b1a      	ldr	r2, [r3, #48]	@ 0x30
 800073e:	f042 0201 	orr.w	r2, r2, #1
 8000742:	631a      	str	r2, [r3, #48]	@ 0x30
 8000744:	6b1a      	ldr	r2, [r3, #48]	@ 0x30
 8000746:	f002 0201 	and.w	r2, r2, #1
 800074a:	9203      	str	r2, [sp, #12]
 800074c:	9a03      	ldr	r2, [sp, #12]
 800074e:	9404      	str	r4, [sp, #16]
 8000750:	6b1a      	ldr	r2, [r3, #48]	@ 0x30
 8000752:	f042 0202 	orr.w	r2, r2, #2
 8000756:	631a      	str	r2, [r3, #48]	@ 0x30
 8000758:	6b1b      	ldr	r3, [r3, #48]	@ 0x30
 800075a:	f003 0302 	and.w	r3, r3, #2
 800075e:	9304      	str	r3, [sp, #16]
 8000760:	4622      	mov	r2, r4
 8000762:	4640      	mov	r0, r8
 8000764:	2103      	movs	r1, #3
 8000766:	9b04      	ldr	r3, [sp, #16]
 8000768:	f001 f93a 	bl	80019e0 <HAL_GPIO_WritePin>
 800076c:	4622      	mov	r2, r4
 800076e:	4638      	mov	r0, r7
 8000770:	2110      	movs	r1, #16
 8000772:	f001 f935 	bl	80019e0 <HAL_GPIO_WritePin>
 8000776:	4622      	mov	r2, r4
 8000778:	4630      	mov	r0, r6
 800077a:	2101      	movs	r1, #1
 800077c:	f001 f930 	bl	80019e0 <HAL_GPIO_WritePin>
 8000780:	2501      	movs	r5, #1
 8000782:	2303      	movs	r3, #3
 8000784:	a905      	add	r1, sp, #20
 8000786:	4640      	mov	r0, r8
 8000788:	e9cd 3505 	strd	r3, r5, [sp, #20]
 800078c:	e9cd 4407 	strd	r4, r4, [sp, #28]
 8000790:	f001 f860 	bl	8001854 <HAL_GPIO_Init>
 8000794:	2310      	movs	r3, #16
 8000796:	a905      	add	r1, sp, #20
 8000798:	4638      	mov	r0, r7
 800079a:	e9cd 3505 	strd	r3, r5, [sp, #20]
 800079e:	e9cd 4407 	strd	r4, r4, [sp, #28]
 80007a2:	f001 f857 	bl	8001854 <HAL_GPIO_Init>
 80007a6:	a905      	add	r1, sp, #20
 80007a8:	4630      	mov	r0, r6
 80007aa:	e9cd 5505 	strd	r5, r5, [sp, #20]
 80007ae:	e9cd 4407 	strd	r4, r4, [sp, #28]
 80007b2:	f001 f84f 	bl	8001854 <HAL_GPIO_Init>
 80007b6:	b00a      	add	sp, #40	@ 0x28
 80007b8:	e8bd 81f0 	ldmia.w	sp!, {r4, r5, r6, r7, r8, pc}
 80007bc:	40023800 	.word	0x40023800
 80007c0:	40020000 	.word	0x40020000
 80007c4:	40020400 	.word	0x40020400
 80007c8:	40020800 	.word	0x40020800

080007cc <readADC>:
 80007cc:	b51f      	push	{r0, r1, r2, r3, r4, lr}
 80007ce:	4c0c      	ldr	r4, [pc, #48]	@ (8000800 <readADC+0x34>)
 80007d0:	9000      	str	r0, [sp, #0]
 80007d2:	2300      	movs	r3, #0
 80007d4:	4669      	mov	r1, sp
 80007d6:	e9cd 3302 	strd	r3, r3, [sp, #8]
 80007da:	4620      	mov	r0, r4
 80007dc:	2301      	movs	r3, #1
 80007de:	9301      	str	r3, [sp, #4]
 80007e0:	f000 fd94 	bl	800130c <HAL_ADC_ConfigChannel>
 80007e4:	4620      	mov	r0, r4
 80007e6:	f000 fcd3 	bl	8001190 <HAL_ADC_Start>
 80007ea:	f04f 31ff 	mov.w	r1, #4294967295	@ 0xffffffff
 80007ee:	4620      	mov	r0, r4
 80007f0:	f000 fd36 	bl	8001260 <HAL_ADC_PollForConversion>
 80007f4:	4620      	mov	r0, r4
 80007f6:	f000 fd86 	bl	8001306 <HAL_ADC_GetValue>
 80007fa:	b004      	add	sp, #16
 80007fc:	bd10      	pop	{r4, pc}
 80007fe:	bf00      	nop
 8000800:	200000d8 	.word	0x200000d8

08000804 <sendcommand>:
 8000804:	4903      	ldr	r1, [pc, #12]	@ (8000814 <sendcommand+0x10>)
 8000806:	230a      	movs	r3, #10
 8000808:	7008      	strb	r0, [r1, #0]
 800080a:	2202      	movs	r2, #2
 800080c:	4802      	ldr	r0, [pc, #8]	@ (8000818 <sendcommand+0x14>)
 800080e:	704b      	strb	r3, [r1, #1]
 8000810:	f001 be2f 	b.w	8002472 <HAL_UART_Transmit>
 8000814:	20000120 	.word	0x20000120
 8000818:	200001bc 	.word	0x200001bc

0800081c <loopJoystick>:
 800081c:	b530      	push	{r4, r5, lr}
 800081e:	2000      	movs	r0, #0
 8000820:	b089      	sub	sp, #36	@ 0x24
 8000822:	f7ff ffd3 	bl	80007cc <readADC>
 8000826:	4604      	mov	r4, r0
 8000828:	2001      	movs	r0, #1
 800082a:	f7ff ffcf 	bl	80007cc <readADC>
 800082e:	4912      	ldr	r1, [pc, #72]	@ (8000878 <loopJoystick+0x5c>)
 8000830:	4603      	mov	r3, r0
 8000832:	4605      	mov	r5, r0
 8000834:	4622      	mov	r2, r4
 8000836:	4668      	mov	r0, sp
 8000838:	f002 f87e 	bl	8002938 <siprintf>
 800083c:	230a      	movs	r3, #10
 800083e:	b282      	uxth	r2, r0
 8000840:	4669      	mov	r1, sp
 8000842:	480e      	ldr	r0, [pc, #56]	@ (800087c <loopJoystick+0x60>)
 8000844:	f001 fe15 	bl	8002472 <HAL_UART_Transmit>
 8000848:	f640 33b8 	movw	r3, #3000	@ 0xbb8
 800084c:	429d      	cmp	r5, r3
 800084e:	d904      	bls.n	800085a <loopJoystick+0x3e>
 8000850:	2046      	movs	r0, #70	@ 0x46
 8000852:	f7ff ffd7 	bl	8000804 <sendcommand>
 8000856:	b009      	add	sp, #36	@ 0x24
 8000858:	bd30      	pop	{r4, r5, pc}
 800085a:	f5b5 7f7a 	cmp.w	r5, #1000	@ 0x3e8
 800085e:	d201      	bcs.n	8000864 <loopJoystick+0x48>
 8000860:	2042      	movs	r0, #66	@ 0x42
 8000862:	e7f6      	b.n	8000852 <loopJoystick+0x36>
 8000864:	429c      	cmp	r4, r3
 8000866:	d901      	bls.n	800086c <loopJoystick+0x50>
 8000868:	2052      	movs	r0, #82	@ 0x52
 800086a:	e7f2      	b.n	8000852 <loopJoystick+0x36>
 800086c:	f5b4 7f7a 	cmp.w	r4, #1000	@ 0x3e8
 8000870:	bf34      	ite	cc
 8000872:	204c      	movcc	r0, #76	@ 0x4c
 8000874:	2053      	movcs	r0, #83	@ 0x53
 8000876:	e7ec      	b.n	8000852 <loopJoystick+0x36>
 8000878:	08003290 	.word	0x08003290
 800087c:	20000174 	.word	0x20000174

08000880 <SystemClock_Config>:
 8000880:	b510      	push	{r4, lr}
 8000882:	b094      	sub	sp, #80	@ 0x50
 8000884:	2214      	movs	r2, #20
 8000886:	2100      	movs	r1, #0
 8000888:	a809      	add	r0, sp, #36	@ 0x24
 800088a:	f002 f877 	bl	800297c <memset>
 800088e:	2214      	movs	r2, #20
 8000890:	2100      	movs	r1, #0
 8000892:	a803      	add	r0, sp, #12
 8000894:	f002 f872 	bl	800297c <memset>
 8000898:	2300      	movs	r3, #0
 800089a:	4a1e      	ldr	r2, [pc, #120]	@ (8000914 <SystemClock_Config+0x94>)
 800089c:	9301      	str	r3, [sp, #4]
 800089e:	6c11      	ldr	r1, [r2, #64]	@ 0x40
 80008a0:	f041 5180 	orr.w	r1, r1, #268435456	@ 0x10000000
 80008a4:	6411      	str	r1, [r2, #64]	@ 0x40
 80008a6:	6c12      	ldr	r2, [r2, #64]	@ 0x40
 80008a8:	f002 5280 	and.w	r2, r2, #268435456	@ 0x10000000
 80008ac:	9201      	str	r2, [sp, #4]
 80008ae:	9a01      	ldr	r2, [sp, #4]
 80008b0:	4a19      	ldr	r2, [pc, #100]	@ (8000918 <SystemClock_Config+0x98>)
 80008b2:	9302      	str	r3, [sp, #8]
 80008b4:	6811      	ldr	r1, [r2, #0]
 80008b6:	f441 4140 	orr.w	r1, r1, #49152	@ 0xc000
 80008ba:	6011      	str	r1, [r2, #0]
 80008bc:	6812      	ldr	r2, [r2, #0]
 80008be:	2402      	movs	r4, #2
 80008c0:	f402 4240 	and.w	r2, r2, #49152	@ 0xc000
 80008c4:	2008      	movs	r0, #8
 80008c6:	e9cd 430e 	strd	r4, r3, [sp, #56]	@ 0x38
 80008ca:	9202      	str	r2, [sp, #8]
 80008cc:	2364      	movs	r3, #100	@ 0x64
 80008ce:	e9cd 0310 	strd	r0, r3, [sp, #64]	@ 0x40
 80008d2:	9a02      	ldr	r2, [sp, #8]
 80008d4:	9408      	str	r4, [sp, #32]
 80008d6:	2101      	movs	r1, #1
 80008d8:	2210      	movs	r2, #16
 80008da:	2304      	movs	r3, #4
 80008dc:	a808      	add	r0, sp, #32
 80008de:	e9cd 120b 	strd	r1, r2, [sp, #44]	@ 0x2c
 80008e2:	9412      	str	r4, [sp, #72]	@ 0x48
 80008e4:	9313      	str	r3, [sp, #76]	@ 0x4c
 80008e6:	f001 f881 	bl	80019ec <HAL_RCC_OscConfig>
 80008ea:	b108      	cbz	r0, 80008f0 <SystemClock_Config+0x70>
 80008ec:	b672      	cpsid	i
 80008ee:	e7fe      	b.n	80008ee <SystemClock_Config+0x6e>
 80008f0:	230f      	movs	r3, #15
 80008f2:	e9cd 3403 	strd	r3, r4, [sp, #12]
 80008f6:	f44f 5380 	mov.w	r3, #4096	@ 0x1000
 80008fa:	e9cd 3006 	strd	r3, r0, [sp, #24]
 80008fe:	9005      	str	r0, [sp, #20]
 8000900:	2103      	movs	r1, #3
 8000902:	a803      	add	r0, sp, #12
 8000904:	f001 fa4e 	bl	8001da4 <HAL_RCC_ClockConfig>
 8000908:	b108      	cbz	r0, 800090e <SystemClock_Config+0x8e>
 800090a:	b672      	cpsid	i
 800090c:	e7fe      	b.n	800090c <SystemClock_Config+0x8c>
 800090e:	b014      	add	sp, #80	@ 0x50
 8000910:	bd10      	pop	{r4, pc}
 8000912:	bf00      	nop
 8000914:	40023800 	.word	0x40023800
 8000918:	40007000 	.word	0x40007000

0800091c <main>:
 800091c:	b508      	push	{r3, lr}
 800091e:	f000 fb51 	bl	8000fc4 <HAL_Init>
 8000922:	f7ff ffad 	bl	8000880 <SystemClock_Config>
 8000926:	f7ff fee5 	bl	80006f4 <MX_GPIO_Init>
 800092a:	f7ff fec9 	bl	80006c0 <MX_DMA_Init>
 800092e:	f000 f949 	bl	8000bc4 <MX_TIM1_Init>
 8000932:	f000 fa51 	bl	8000dd8 <MX_USART1_UART_Init>
 8000936:	f7ff fe41 	bl	80005bc <MX_ADC1_Init>
 800093a:	f000 fa69 	bl	8000e10 <MX_USART2_UART_Init>
 800093e:	f000 f99b 	bl	8000c78 <UART_Init>
 8000942:	f000 f9c7 	bl	8000cd4 <HC05_BindToHC06>
 8000946:	f7ff ff69 	bl	800081c <loopJoystick>
 800094a:	2032      	movs	r0, #50	@ 0x32
 800094c:	f000 fb66 	bl	800101c <HAL_Delay>
 8000950:	e7f9      	b.n	8000946 <main+0x2a>

08000952 <Error_Handler>:
 8000952:	b672      	cpsid	i
 8000954:	e7fe      	b.n	8000954 <Error_Handler+0x2>
	...

08000958 <Motor_Forward>:
 8000958:	b510      	push	{r4, lr}
 800095a:	4c0b      	ldr	r4, [pc, #44]	@ (8000988 <Motor_Forward+0x30>)
 800095c:	2201      	movs	r2, #1
 800095e:	4611      	mov	r1, r2
 8000960:	4620      	mov	r0, r4
 8000962:	f001 f83d 	bl	80019e0 <HAL_GPIO_WritePin>
 8000966:	4620      	mov	r0, r4
 8000968:	2200      	movs	r2, #0
 800096a:	2102      	movs	r1, #2
 800096c:	f001 f838 	bl	80019e0 <HAL_GPIO_WritePin>
 8000970:	2201      	movs	r2, #1
 8000972:	4611      	mov	r1, r2
 8000974:	4805      	ldr	r0, [pc, #20]	@ (800098c <Motor_Forward+0x34>)
 8000976:	f001 f833 	bl	80019e0 <HAL_GPIO_WritePin>
 800097a:	e8bd 4010 	ldmia.w	sp!, {r4, lr}
 800097e:	4804      	ldr	r0, [pc, #16]	@ (8000990 <Motor_Forward+0x38>)
 8000980:	2200      	movs	r2, #0
 8000982:	2110      	movs	r1, #16
 8000984:	f001 b82c 	b.w	80019e0 <HAL_GPIO_WritePin>
 8000988:	40020800 	.word	0x40020800
 800098c:	40020400 	.word	0x40020400
 8000990:	40020000 	.word	0x40020000

08000994 <Motor_Backward>:
 8000994:	b510      	push	{r4, lr}
 8000996:	4c0b      	ldr	r4, [pc, #44]	@ (80009c4 <Motor_Backward+0x30>)
 8000998:	2200      	movs	r2, #0
 800099a:	4620      	mov	r0, r4
 800099c:	2101      	movs	r1, #1
 800099e:	f001 f81f 	bl	80019e0 <HAL_GPIO_WritePin>
 80009a2:	4620      	mov	r0, r4
 80009a4:	2201      	movs	r2, #1
 80009a6:	2102      	movs	r1, #2
 80009a8:	f001 f81a 	bl	80019e0 <HAL_GPIO_WritePin>
 80009ac:	4806      	ldr	r0, [pc, #24]	@ (80009c8 <Motor_Backward+0x34>)
 80009ae:	2200      	movs	r2, #0
 80009b0:	2101      	movs	r1, #1
 80009b2:	f001 f815 	bl	80019e0 <HAL_GPIO_WritePin>
 80009b6:	e8bd 4010 	ldmia.w	sp!, {r4, lr}
 80009ba:	4804      	ldr	r0, [pc, #16]	@ (80009cc <Motor_Backward+0x38>)
 80009bc:	2201      	movs	r2, #1
 80009be:	2110      	movs	r1, #16
 80009c0:	f001 b80e 	b.w	80019e0 <HAL_GPIO_WritePin>
 80009c4:	40020800 	.word	0x40020800
 80009c8:	40020400 	.word	0x40020400
 80009cc:	40020000 	.word	0x40020000

080009d0 <Motor_Left>:
 80009d0:	b510      	push	{r4, lr}
 80009d2:	4c0b      	ldr	r4, [pc, #44]	@ (8000a00 <Motor_Left+0x30>)
 80009d4:	2200      	movs	r2, #0
 80009d6:	4620      	mov	r0, r4
 80009d8:	2101      	movs	r1, #1
 80009da:	f001 f801 	bl	80019e0 <HAL_GPIO_WritePin>
 80009de:	4620      	mov	r0, r4
 80009e0:	2201      	movs	r2, #1
 80009e2:	2102      	movs	r1, #2
 80009e4:	f000 fffc 	bl	80019e0 <HAL_GPIO_WritePin>
 80009e8:	2201      	movs	r2, #1
 80009ea:	4611      	mov	r1, r2
 80009ec:	4805      	ldr	r0, [pc, #20]	@ (8000a04 <Motor_Left+0x34>)
 80009ee:	f000 fff7 	bl	80019e0 <HAL_GPIO_WritePin>
 80009f2:	e8bd 4010 	ldmia.w	sp!, {r4, lr}
 80009f6:	4804      	ldr	r0, [pc, #16]	@ (8000a08 <Motor_Left+0x38>)
 80009f8:	2200      	movs	r2, #0
 80009fa:	2110      	movs	r1, #16
 80009fc:	f000 bff0 	b.w	80019e0 <HAL_GPIO_WritePin>
 8000a00:	40020800 	.word	0x40020800
 8000a04:	40020400 	.word	0x40020400
 8000a08:	40020000 	.word	0x40020000

08000a0c <Motor_Right>:
 8000a0c:	b510      	push	{r4, lr}
 8000a0e:	4c0b      	ldr	r4, [pc, #44]	@ (8000a3c <Motor_Right+0x30>)
 8000a10:	2201      	movs	r2, #1
 8000a12:	4611      	mov	r1, r2
 8000a14:	4620      	mov	r0, r4
 8000a16:	f000 ffe3 	bl	80019e0 <HAL_GPIO_WritePin>
 8000a1a:	4620      	mov	r0, r4
 8000a1c:	2200      	movs	r2, #0
 8000a1e:	2102      	movs	r1, #2
 8000a20:	f000 ffde 	bl	80019e0 <HAL_GPIO_WritePin>
 8000a24:	4806      	ldr	r0, [pc, #24]	@ (8000a40 <Motor_Right+0x34>)
 8000a26:	2200      	movs	r2, #0
 8000a28:	2101      	movs	r1, #1
 8000a2a:	f000 ffd9 	bl	80019e0 <HAL_GPIO_WritePin>
 8000a2e:	e8bd 4010 	ldmia.w	sp!, {r4, lr}
 8000a32:	4804      	ldr	r0, [pc, #16]	@ (8000a44 <Motor_Right+0x38>)
 8000a34:	2201      	movs	r2, #1
 8000a36:	2110      	movs	r1, #16
 8000a38:	f000 bfd2 	b.w	80019e0 <HAL_GPIO_WritePin>
 8000a3c:	40020800 	.word	0x40020800
 8000a40:	40020400 	.word	0x40020400
 8000a44:	40020000 	.word	0x40020000

08000a48 <Motor_Stop>:
 8000a48:	b508      	push	{r3, lr}
 8000a4a:	4808      	ldr	r0, [pc, #32]	@ (8000a6c <Motor_Stop+0x24>)
 8000a4c:	2200      	movs	r2, #0
 8000a4e:	2103      	movs	r1, #3
 8000a50:	f000 ffc6 	bl	80019e0 <HAL_GPIO_WritePin>
 8000a54:	4806      	ldr	r0, [pc, #24]	@ (8000a70 <Motor_Stop+0x28>)
 8000a56:	2200      	movs	r2, #0
 8000a58:	2101      	movs	r1, #1
 8000a5a:	f000 ffc1 	bl	80019e0 <HAL_GPIO_WritePin>
 8000a5e:	e8bd 4008 	ldmia.w	sp!, {r3, lr}
 8000a62:	4804      	ldr	r0, [pc, #16]	@ (8000a74 <Motor_Stop+0x2c>)
 8000a64:	2200      	movs	r2, #0
 8000a66:	2110      	movs	r1, #16
 8000a68:	f000 bfba 	b.w	80019e0 <HAL_GPIO_WritePin>
 8000a6c:	40020800 	.word	0x40020800
 8000a70:	40020400 	.word	0x40020400
 8000a74:	40020000 	.word	0x40020000

08000a78 <HAL_MspInit>:
 8000a78:	b082      	sub	sp, #8
 8000a7a:	4b0c      	ldr	r3, [pc, #48]	@ (8000aac <HAL_MspInit+0x34>)
 8000a7c:	2100      	movs	r1, #0
 8000a7e:	9100      	str	r1, [sp, #0]
 8000a80:	6c5a      	ldr	r2, [r3, #68]	@ 0x44
 8000a82:	f442 4280 	orr.w	r2, r2, #16384	@ 0x4000
 8000a86:	645a      	str	r2, [r3, #68]	@ 0x44
 8000a88:	6c5a      	ldr	r2, [r3, #68]	@ 0x44
 8000a8a:	f402 4280 	and.w	r2, r2, #16384	@ 0x4000
 8000a8e:	9200      	str	r2, [sp, #0]
 8000a90:	9a00      	ldr	r2, [sp, #0]
 8000a92:	9101      	str	r1, [sp, #4]
 8000a94:	6c1a      	ldr	r2, [r3, #64]	@ 0x40
 8000a96:	f042 5280 	orr.w	r2, r2, #268435456	@ 0x10000000
 8000a9a:	641a      	str	r2, [r3, #64]	@ 0x40
 8000a9c:	6c1b      	ldr	r3, [r3, #64]	@ 0x40
 8000a9e:	f003 5380 	and.w	r3, r3, #268435456	@ 0x10000000
 8000aa2:	9301      	str	r3, [sp, #4]
 8000aa4:	9b01      	ldr	r3, [sp, #4]
 8000aa6:	b002      	add	sp, #8
 8000aa8:	4770      	bx	lr
 8000aaa:	bf00      	nop
 8000aac:	40023800 	.word	0x40023800

08000ab0 <NMI_Handler>:
 8000ab0:	e7fe      	b.n	8000ab0 <NMI_Handler>

08000ab2 <HardFault_Handler>:
 8000ab2:	e7fe      	b.n	8000ab2 <HardFault_Handler>

08000ab4 <MemManage_Handler>:
 8000ab4:	e7fe      	b.n	8000ab4 <MemManage_Handler>

08000ab6 <BusFault_Handler>:
 8000ab6:	e7fe      	b.n	8000ab6 <BusFault_Handler>

08000ab8 <UsageFault_Handler>:
 8000ab8:	e7fe      	b.n	8000ab8 <UsageFault_Handler>

08000aba <SVC_Handler>:
 8000aba:	4770      	bx	lr

08000abc <DebugMon_Handler>:
 8000abc:	4770      	bx	lr

08000abe <PendSV_Handler>:
 8000abe:	4770      	bx	lr

08000ac0 <SysTick_Handler>:
 8000ac0:	f000 ba9a 	b.w	8000ff8 <HAL_IncTick>

08000ac4 <USART1_IRQHandler>:
 8000ac4:	4801      	ldr	r0, [pc, #4]	@ (8000acc <USART1_IRQHandler+0x8>)
 8000ac6:	f001 bd87 	b.w	80025d8 <HAL_UART_IRQHandler>
 8000aca:	bf00      	nop
 8000acc:	200001bc 	.word	0x200001bc

08000ad0 <USART2_IRQHandler>:
 8000ad0:	4801      	ldr	r0, [pc, #4]	@ (8000ad8 <USART2_IRQHandler+0x8>)
 8000ad2:	f001 bd81 	b.w	80025d8 <HAL_UART_IRQHandler>
 8000ad6:	bf00      	nop
 8000ad8:	20000174 	.word	0x20000174

08000adc <DMA2_Stream0_IRQHandler>:
 8000adc:	4801      	ldr	r0, [pc, #4]	@ (8000ae4 <DMA2_Stream0_IRQHandler+0x8>)
 8000ade:	f000 bdfb 	b.w	80016d8 <HAL_DMA_IRQHandler>
 8000ae2:	bf00      	nop
 8000ae4:	20000078 	.word	0x20000078

08000ae8 <_sbrk>:
 8000ae8:	4a0b      	ldr	r2, [pc, #44]	@ (8000b18 <_sbrk+0x30>)
 8000aea:	6811      	ldr	r1, [r2, #0]
 8000aec:	b510      	push	{r4, lr}
 8000aee:	4603      	mov	r3, r0
 8000af0:	b909      	cbnz	r1, 8000af6 <_sbrk+0xe>
 8000af2:	490a      	ldr	r1, [pc, #40]	@ (8000b1c <_sbrk+0x34>)
 8000af4:	6011      	str	r1, [r2, #0]
 8000af6:	6810      	ldr	r0, [r2, #0]
 8000af8:	4909      	ldr	r1, [pc, #36]	@ (8000b20 <_sbrk+0x38>)
 8000afa:	4c0a      	ldr	r4, [pc, #40]	@ (8000b24 <_sbrk+0x3c>)
 8000afc:	4403      	add	r3, r0
 8000afe:	1b09      	subs	r1, r1, r4
 8000b00:	428b      	cmp	r3, r1
 8000b02:	d906      	bls.n	8000b12 <_sbrk+0x2a>
 8000b04:	f001 ff42 	bl	800298c <__errno>
 8000b08:	230c      	movs	r3, #12
 8000b0a:	6003      	str	r3, [r0, #0]
 8000b0c:	f04f 30ff 	mov.w	r0, #4294967295	@ 0xffffffff
 8000b10:	bd10      	pop	{r4, pc}
 8000b12:	6013      	str	r3, [r2, #0]
 8000b14:	e7fc      	b.n	8000b10 <_sbrk+0x28>
 8000b16:	bf00      	nop
 8000b18:	20000124 	.word	0x20000124
 8000b1c:	20000350 	.word	0x20000350
 8000b20:	20020000 	.word	0x20020000
 8000b24:	00000400 	.word	0x00000400

08000b28 <SystemInit>:
 8000b28:	4a03      	ldr	r2, [pc, #12]	@ (8000b38 <SystemInit+0x10>)
 8000b2a:	f8d2 3088 	ldr.w	r3, [r2, #136]	@ 0x88
 8000b2e:	f443 0370 	orr.w	r3, r3, #15728640	@ 0xf00000
 8000b32:	f8c2 3088 	str.w	r3, [r2, #136]	@ 0x88
 8000b36:	4770      	bx	lr
 8000b38:	e000ed00 	.word	0xe000ed00

08000b3c <HAL_TIM_PWM_MspInit>:
 8000b3c:	6802      	ldr	r2, [r0, #0]
 8000b3e:	4b09      	ldr	r3, [pc, #36]	@ (8000b64 <HAL_TIM_PWM_MspInit+0x28>)
 8000b40:	429a      	cmp	r2, r3
 8000b42:	b082      	sub	sp, #8
 8000b44:	d10b      	bne.n	8000b5e <HAL_TIM_PWM_MspInit+0x22>
 8000b46:	2300      	movs	r3, #0
 8000b48:	9301      	str	r3, [sp, #4]
 8000b4a:	4b07      	ldr	r3, [pc, #28]	@ (8000b68 <HAL_TIM_PWM_MspInit+0x2c>)
 8000b4c:	6c5a      	ldr	r2, [r3, #68]	@ 0x44
 8000b4e:	f042 0201 	orr.w	r2, r2, #1
 8000b52:	645a      	str	r2, [r3, #68]	@ 0x44
 8000b54:	6c5b      	ldr	r3, [r3, #68]	@ 0x44
 8000b56:	f003 0301 	and.w	r3, r3, #1
 8000b5a:	9301      	str	r3, [sp, #4]
 8000b5c:	9b01      	ldr	r3, [sp, #4]
 8000b5e:	b002      	add	sp, #8
 8000b60:	4770      	bx	lr
 8000b62:	bf00      	nop
 8000b64:	40010000 	.word	0x40010000
 8000b68:	40023800 	.word	0x40023800

08000b6c <HAL_TIM_MspPostInit>:
 8000b6c:	b510      	push	{r4, lr}
 8000b6e:	4604      	mov	r4, r0
 8000b70:	b086      	sub	sp, #24
 8000b72:	2214      	movs	r2, #20
 8000b74:	2100      	movs	r1, #0
 8000b76:	a801      	add	r0, sp, #4
 8000b78:	f001 ff00 	bl	800297c <memset>
 8000b7c:	6822      	ldr	r2, [r4, #0]
 8000b7e:	4b0e      	ldr	r3, [pc, #56]	@ (8000bb8 <HAL_TIM_MspPostInit+0x4c>)
 8000b80:	429a      	cmp	r2, r3
 8000b82:	d116      	bne.n	8000bb2 <HAL_TIM_MspPostInit+0x46>
 8000b84:	2300      	movs	r3, #0
 8000b86:	9300      	str	r3, [sp, #0]
 8000b88:	4b0c      	ldr	r3, [pc, #48]	@ (8000bbc <HAL_TIM_MspPostInit+0x50>)
 8000b8a:	480d      	ldr	r0, [pc, #52]	@ (8000bc0 <HAL_TIM_MspPostInit+0x54>)
 8000b8c:	6b1a      	ldr	r2, [r3, #48]	@ 0x30
 8000b8e:	f042 0201 	orr.w	r2, r2, #1
 8000b92:	631a      	str	r2, [r3, #48]	@ 0x30
 8000b94:	6b1b      	ldr	r3, [r3, #48]	@ 0x30
 8000b96:	f003 0301 	and.w	r3, r3, #1
 8000b9a:	9300      	str	r3, [sp, #0]
 8000b9c:	9b00      	ldr	r3, [sp, #0]
 8000b9e:	f44f 7240 	mov.w	r2, #768	@ 0x300
 8000ba2:	2302      	movs	r3, #2
 8000ba4:	e9cd 2301 	strd	r2, r3, [sp, #4]
 8000ba8:	a901      	add	r1, sp, #4
 8000baa:	2301      	movs	r3, #1
 8000bac:	9305      	str	r3, [sp, #20]
 8000bae:	f000 fe51 	bl	8001854 <HAL_GPIO_Init>
 8000bb2:	b006      	add	sp, #24
 8000bb4:	bd10      	pop	{r4, pc}
 8000bb6:	bf00      	nop
 8000bb8:	40010000 	.word	0x40010000
 8000bbc:	40023800 	.word	0x40023800
 8000bc0:	40020000 	.word	0x40020000

08000bc4 <MX_TIM1_Init>:
 8000bc4:	b510      	push	{r4, lr}
 8000bc6:	2400      	movs	r4, #0
 8000bc8:	b092      	sub	sp, #72	@ 0x48
 8000bca:	221c      	movs	r2, #28
 8000bcc:	4621      	mov	r1, r4
 8000bce:	a803      	add	r0, sp, #12
 8000bd0:	e9cd 4401 	strd	r4, r4, [sp, #4]
 8000bd4:	f001 fed2 	bl	800297c <memset>
 8000bd8:	2220      	movs	r2, #32
 8000bda:	4621      	mov	r1, r4
 8000bdc:	a80a      	add	r0, sp, #40	@ 0x28
 8000bde:	f001 fecd 	bl	800297c <memset>
 8000be2:	4823      	ldr	r0, [pc, #140]	@ (8000c70 <MX_TIM1_Init+0xac>)
 8000be4:	4b23      	ldr	r3, [pc, #140]	@ (8000c74 <MX_TIM1_Init+0xb0>)
 8000be6:	6084      	str	r4, [r0, #8]
 8000be8:	e9c0 3400 	strd	r3, r4, [r0]
 8000bec:	f64f 73ff 	movw	r3, #65535	@ 0xffff
 8000bf0:	e9c0 3403 	strd	r3, r4, [r0, #12]
 8000bf4:	e9c0 4405 	strd	r4, r4, [r0, #20]
 8000bf8:	f001 fa42 	bl	8002080 <HAL_TIM_PWM_Init>
 8000bfc:	b108      	cbz	r0, 8000c02 <MX_TIM1_Init+0x3e>
 8000bfe:	f7ff fea8 	bl	8000952 <Error_Handler>
 8000c02:	481b      	ldr	r0, [pc, #108]	@ (8000c70 <MX_TIM1_Init+0xac>)
 8000c04:	a901      	add	r1, sp, #4
 8000c06:	e9cd 4401 	strd	r4, r4, [sp, #4]
 8000c0a:	f001 fae9 	bl	80021e0 <HAL_TIMEx_MasterConfigSynchronization>
 8000c0e:	b108      	cbz	r0, 8000c14 <MX_TIM1_Init+0x50>
 8000c10:	f7ff fe9f 	bl	8000952 <Error_Handler>
 8000c14:	2200      	movs	r2, #0
 8000c16:	2360      	movs	r3, #96	@ 0x60
 8000c18:	4815      	ldr	r0, [pc, #84]	@ (8000c70 <MX_TIM1_Init+0xac>)
 8000c1a:	9209      	str	r2, [sp, #36]	@ 0x24
 8000c1c:	a903      	add	r1, sp, #12
 8000c1e:	e9cd 3203 	strd	r3, r2, [sp, #12]
 8000c22:	e9cd 2205 	strd	r2, r2, [sp, #20]
 8000c26:	e9cd 2207 	strd	r2, r2, [sp, #28]
 8000c2a:	f001 fa81 	bl	8002130 <HAL_TIM_PWM_ConfigChannel>
 8000c2e:	b108      	cbz	r0, 8000c34 <MX_TIM1_Init+0x70>
 8000c30:	f7ff fe8f 	bl	8000952 <Error_Handler>
 8000c34:	480e      	ldr	r0, [pc, #56]	@ (8000c70 <MX_TIM1_Init+0xac>)
 8000c36:	2204      	movs	r2, #4
 8000c38:	a903      	add	r1, sp, #12
 8000c3a:	f001 fa79 	bl	8002130 <HAL_TIM_PWM_ConfigChannel>
 8000c3e:	b108      	cbz	r0, 8000c44 <MX_TIM1_Init+0x80>
 8000c40:	f7ff fe87 	bl	8000952 <Error_Handler>
 8000c44:	2300      	movs	r3, #0
 8000c46:	f44f 5200 	mov.w	r2, #8192	@ 0x2000
 8000c4a:	4809      	ldr	r0, [pc, #36]	@ (8000c70 <MX_TIM1_Init+0xac>)
 8000c4c:	930e      	str	r3, [sp, #56]	@ 0x38
 8000c4e:	a90a      	add	r1, sp, #40	@ 0x28
 8000c50:	e9cd 330a 	strd	r3, r3, [sp, #40]	@ 0x28
 8000c54:	e9cd 330c 	strd	r3, r3, [sp, #48]	@ 0x30
 8000c58:	920f      	str	r2, [sp, #60]	@ 0x3c
 8000c5a:	9311      	str	r3, [sp, #68]	@ 0x44
 8000c5c:	f001 faf6 	bl	800224c <HAL_TIMEx_ConfigBreakDeadTime>
 8000c60:	b108      	cbz	r0, 8000c66 <MX_TIM1_Init+0xa2>
 8000c62:	f7ff fe76 	bl	8000952 <Error_Handler>
 8000c66:	4802      	ldr	r0, [pc, #8]	@ (8000c70 <MX_TIM1_Init+0xac>)
 8000c68:	f7ff ff80 	bl	8000b6c <HAL_TIM_MspPostInit>
 8000c6c:	b012      	add	sp, #72	@ 0x48
 8000c6e:	bd10      	pop	{r4, pc}
 8000c70:	20000128 	.word	0x20000128
 8000c74:	40010000 	.word	0x40010000

08000c78 <UART_Init>:
 8000c78:	b508      	push	{r3, lr}
 8000c7a:	4906      	ldr	r1, [pc, #24]	@ (8000c94 <UART_Init+0x1c>)
 8000c7c:	4806      	ldr	r0, [pc, #24]	@ (8000c98 <UART_Init+0x20>)
 8000c7e:	2201      	movs	r2, #1
 8000c80:	f001 fe13 	bl	80028aa <HAL_UART_Receive_IT>
 8000c84:	e8bd 4008 	ldmia.w	sp!, {r3, lr}
 8000c88:	4904      	ldr	r1, [pc, #16]	@ (8000c9c <UART_Init+0x24>)
 8000c8a:	4805      	ldr	r0, [pc, #20]	@ (8000ca0 <UART_Init+0x28>)
 8000c8c:	2201      	movs	r2, #1
 8000c8e:	f001 be0c 	b.w	80028aa <HAL_UART_Receive_IT>
 8000c92:	bf00      	nop
 8000c94:	20000171 	.word	0x20000171
 8000c98:	200001bc 	.word	0x200001bc
 8000c9c:	20000170 	.word	0x20000170
 8000ca0:	20000174 	.word	0x20000174

08000ca4 <HC05_SendATCommand>:
 8000ca4:	b510      	push	{r4, lr}
 8000ca6:	b090      	sub	sp, #64	@ 0x40
 8000ca8:	460b      	mov	r3, r1
 8000caa:	4a09      	ldr	r2, [pc, #36]	@ (8000cd0 <HC05_SendATCommand+0x2c>)
 8000cac:	4604      	mov	r4, r0
 8000cae:	2140      	movs	r1, #64	@ 0x40
 8000cb0:	4668      	mov	r0, sp
 8000cb2:	f001 fe0b 	bl	80028cc <sniprintf>
 8000cb6:	4668      	mov	r0, sp
 8000cb8:	f7ff fa92 	bl	80001e0 <strlen>
 8000cbc:	f44f 73fa 	mov.w	r3, #500	@ 0x1f4
 8000cc0:	b282      	uxth	r2, r0
 8000cc2:	4669      	mov	r1, sp
 8000cc4:	4620      	mov	r0, r4
 8000cc6:	f001 fbd4 	bl	8002472 <HAL_UART_Transmit>
 8000cca:	b010      	add	sp, #64	@ 0x40
 8000ccc:	bd10      	pop	{r4, pc}
 8000cce:	bf00      	nop
 8000cd0:	0800329e 	.word	0x0800329e

08000cd4 <HC05_BindToHC06>:
 8000cd4:	b510      	push	{r4, lr}
 8000cd6:	4c13      	ldr	r4, [pc, #76]	@ (8000d24 <HC05_BindToHC06+0x50>)
 8000cd8:	f44f 707a 	mov.w	r0, #1000	@ 0x3e8
 8000cdc:	f000 f99e 	bl	800101c <HAL_Delay>
 8000ce0:	4911      	ldr	r1, [pc, #68]	@ (8000d28 <HC05_BindToHC06+0x54>)
 8000ce2:	4620      	mov	r0, r4
 8000ce4:	f7ff ffde 	bl	8000ca4 <HC05_SendATCommand>
 8000ce8:	f44f 70fa 	mov.w	r0, #500	@ 0x1f4
 8000cec:	f000 f996 	bl	800101c <HAL_Delay>
 8000cf0:	490e      	ldr	r1, [pc, #56]	@ (8000d2c <HC05_BindToHC06+0x58>)
 8000cf2:	4620      	mov	r0, r4
 8000cf4:	f7ff ffd6 	bl	8000ca4 <HC05_SendATCommand>
 8000cf8:	f44f 70fa 	mov.w	r0, #500	@ 0x1f4
 8000cfc:	f000 f98e 	bl	800101c <HAL_Delay>
 8000d00:	490b      	ldr	r1, [pc, #44]	@ (8000d30 <HC05_BindToHC06+0x5c>)
 8000d02:	4620      	mov	r0, r4
 8000d04:	f7ff ffce 	bl	8000ca4 <HC05_SendATCommand>
 8000d08:	f44f 70fa 	mov.w	r0, #500	@ 0x1f4
 8000d0c:	f000 f986 	bl	800101c <HAL_Delay>
 8000d10:	4620      	mov	r0, r4
 8000d12:	4908      	ldr	r1, [pc, #32]	@ (8000d34 <HC05_BindToHC06+0x60>)
 8000d14:	f7ff ffc6 	bl	8000ca4 <HC05_SendATCommand>
 8000d18:	e8bd 4010 	ldmia.w	sp!, {r4, lr}
 8000d1c:	f44f 707a 	mov.w	r0, #1000	@ 0x3e8
 8000d20:	f000 b97c 	b.w	800101c <HAL_Delay>
 8000d24:	200001bc 	.word	0x200001bc
 8000d28:	080032a3 	.word	0x080032a3
 8000d2c:	080032a6 	.word	0x080032a6
 8000d30:	080032b5 	.word	0x080032b5
 8000d34:	080032cc 	.word	0x080032cc

08000d38 <UART_ProcessCommand>:
 8000d38:	4b0c      	ldr	r3, [pc, #48]	@ (8000d6c <UART_ProcessCommand+0x34>)
 8000d3a:	781b      	ldrb	r3, [r3, #0]
 8000d3c:	2b4c      	cmp	r3, #76	@ 0x4c
 8000d3e:	d00e      	beq.n	8000d5e <UART_ProcessCommand+0x26>
 8000d40:	d804      	bhi.n	8000d4c <UART_ProcessCommand+0x14>
 8000d42:	2b42      	cmp	r3, #66	@ 0x42
 8000d44:	d009      	beq.n	8000d5a <UART_ProcessCommand+0x22>
 8000d46:	2b46      	cmp	r3, #70	@ 0x46
 8000d48:	d005      	beq.n	8000d56 <UART_ProcessCommand+0x1e>
 8000d4a:	4770      	bx	lr
 8000d4c:	2b52      	cmp	r3, #82	@ 0x52
 8000d4e:	d008      	beq.n	8000d62 <UART_ProcessCommand+0x2a>
 8000d50:	2b53      	cmp	r3, #83	@ 0x53
 8000d52:	d008      	beq.n	8000d66 <UART_ProcessCommand+0x2e>
 8000d54:	4770      	bx	lr
 8000d56:	f7ff bdff 	b.w	8000958 <Motor_Forward>
 8000d5a:	f7ff be1b 	b.w	8000994 <Motor_Backward>
 8000d5e:	f7ff be37 	b.w	80009d0 <Motor_Left>
 8000d62:	f7ff be53 	b.w	8000a0c <Motor_Right>
 8000d66:	f7ff be6f 	b.w	8000a48 <Motor_Stop>
 8000d6a:	bf00      	nop
 8000d6c:	20000171 	.word	0x20000171

08000d70 <HAL_UART_RxCpltCallback>:
 8000d70:	b508      	push	{r3, lr}
 8000d72:	4a13      	ldr	r2, [pc, #76]	@ (8000dc0 <HAL_UART_RxCpltCallback+0x50>)
 8000d74:	6803      	ldr	r3, [r0, #0]
 8000d76:	4293      	cmp	r3, r2
 8000d78:	d10e      	bne.n	8000d98 <HAL_UART_RxCpltCallback+0x28>
 8000d7a:	4912      	ldr	r1, [pc, #72]	@ (8000dc4 <HAL_UART_RxCpltCallback+0x54>)
 8000d7c:	4812      	ldr	r0, [pc, #72]	@ (8000dc8 <HAL_UART_RxCpltCallback+0x58>)
 8000d7e:	2201      	movs	r2, #1
 8000d80:	230a      	movs	r3, #10
 8000d82:	f001 fb76 	bl	8002472 <HAL_UART_Transmit>
 8000d86:	f7ff ffd7 	bl	8000d38 <UART_ProcessCommand>
 8000d8a:	490e      	ldr	r1, [pc, #56]	@ (8000dc4 <HAL_UART_RxCpltCallback+0x54>)
 8000d8c:	480f      	ldr	r0, [pc, #60]	@ (8000dcc <HAL_UART_RxCpltCallback+0x5c>)
 8000d8e:	2201      	movs	r2, #1
 8000d90:	e8bd 4008 	ldmia.w	sp!, {r3, lr}
 8000d94:	f001 bd89 	b.w	80028aa <HAL_UART_Receive_IT>
 8000d98:	4a0d      	ldr	r2, [pc, #52]	@ (8000dd0 <HAL_UART_RxCpltCallback+0x60>)
 8000d9a:	4293      	cmp	r3, r2
 8000d9c:	d10f      	bne.n	8000dbe <HAL_UART_RxCpltCallback+0x4e>
 8000d9e:	490d      	ldr	r1, [pc, #52]	@ (8000dd4 <HAL_UART_RxCpltCallback+0x64>)
 8000da0:	480a      	ldr	r0, [pc, #40]	@ (8000dcc <HAL_UART_RxCpltCallback+0x5c>)
 8000da2:	230a      	movs	r3, #10
 8000da4:	2201      	movs	r2, #1
 8000da6:	f001 fb64 	bl	8002472 <HAL_UART_Transmit>
 8000daa:	490a      	ldr	r1, [pc, #40]	@ (8000dd4 <HAL_UART_RxCpltCallback+0x64>)
 8000dac:	4806      	ldr	r0, [pc, #24]	@ (8000dc8 <HAL_UART_RxCpltCallback+0x58>)
 8000dae:	2201      	movs	r2, #1
 8000db0:	230a      	movs	r3, #10
 8000db2:	f001 fb5e 	bl	8002472 <HAL_UART_Transmit>
 8000db6:	4907      	ldr	r1, [pc, #28]	@ (8000dd4 <HAL_UART_RxCpltCallback+0x64>)
 8000db8:	4803      	ldr	r0, [pc, #12]	@ (8000dc8 <HAL_UART_RxCpltCallback+0x58>)
 8000dba:	2201      	movs	r2, #1
 8000dbc:	e7e8      	b.n	8000d90 <HAL_UART_RxCpltCallback+0x20>
 8000dbe:	bd08      	pop	{r3, pc}
 8000dc0:	40011000 	.word	0x40011000
 8000dc4:	20000171 	.word	0x20000171
 8000dc8:	20000174 	.word	0x20000174
 8000dcc:	200001bc 	.word	0x200001bc
 8000dd0:	40004400 	.word	0x40004400
 8000dd4:	20000170 	.word	0x20000170

08000dd8 <MX_USART1_UART_Init>:
 8000dd8:	480b      	ldr	r0, [pc, #44]	@ (8000e08 <MX_USART1_UART_Init+0x30>)
 8000dda:	4a0c      	ldr	r2, [pc, #48]	@ (8000e0c <MX_USART1_UART_Init+0x34>)
 8000ddc:	b508      	push	{r3, lr}
 8000dde:	f44f 4316 	mov.w	r3, #38400	@ 0x9600
 8000de2:	e9c0 2300 	strd	r2, r3, [r0]
 8000de6:	2300      	movs	r3, #0
 8000de8:	220c      	movs	r2, #12
 8000dea:	e9c0 3302 	strd	r3, r3, [r0, #8]
 8000dee:	e9c0 2305 	strd	r2, r3, [r0, #20]
 8000df2:	6103      	str	r3, [r0, #16]
 8000df4:	61c3      	str	r3, [r0, #28]
 8000df6:	f001 fb0d 	bl	8002414 <HAL_UART_Init>
 8000dfa:	b118      	cbz	r0, 8000e04 <MX_USART1_UART_Init+0x2c>
 8000dfc:	e8bd 4008 	ldmia.w	sp!, {r3, lr}
 8000e00:	f7ff bda7 	b.w	8000952 <Error_Handler>
 8000e04:	bd08      	pop	{r3, pc}
 8000e06:	bf00      	nop
 8000e08:	200001bc 	.word	0x200001bc
 8000e0c:	40011000 	.word	0x40011000

08000e10 <MX_USART2_UART_Init>:
 8000e10:	480b      	ldr	r0, [pc, #44]	@ (8000e40 <MX_USART2_UART_Init+0x30>)
 8000e12:	4a0c      	ldr	r2, [pc, #48]	@ (8000e44 <MX_USART2_UART_Init+0x34>)
 8000e14:	b508      	push	{r3, lr}
 8000e16:	f44f 4316 	mov.w	r3, #38400	@ 0x9600
 8000e1a:	e9c0 2300 	strd	r2, r3, [r0]
 8000e1e:	2300      	movs	r3, #0
 8000e20:	220c      	movs	r2, #12
 8000e22:	e9c0 3302 	strd	r3, r3, [r0, #8]
 8000e26:	e9c0 2305 	strd	r2, r3, [r0, #20]
 8000e2a:	6103      	str	r3, [r0, #16]
 8000e2c:	61c3      	str	r3, [r0, #28]
 8000e2e:	f001 faf1 	bl	8002414 <HAL_UART_Init>
 8000e32:	b118      	cbz	r0, 8000e3c <MX_USART2_UART_Init+0x2c>
 8000e34:	e8bd 4008 	ldmia.w	sp!, {r3, lr}
 8000e38:	f7ff bd8b 	b.w	8000952 <Error_Handler>
 8000e3c:	bd08      	pop	{r3, pc}
 8000e3e:	bf00      	nop
 8000e40:	20000174 	.word	0x20000174
 8000e44:	40004400 	.word	0x40004400

08000e48 <HAL_UART_MspInit>:
 8000e48:	b510      	push	{r4, lr}
 8000e4a:	2214      	movs	r2, #20
 8000e4c:	b08a      	sub	sp, #40	@ 0x28
 8000e4e:	4604      	mov	r4, r0
 8000e50:	2100      	movs	r1, #0
 8000e52:	eb0d 0002 	add.w	r0, sp, r2
 8000e56:	f001 fd91 	bl	800297c <memset>
 8000e5a:	6823      	ldr	r3, [r4, #0]
 8000e5c:	4a2e      	ldr	r2, [pc, #184]	@ (8000f18 <HAL_UART_MspInit+0xd0>)
 8000e5e:	4293      	cmp	r3, r2
 8000e60:	d12d      	bne.n	8000ebe <HAL_UART_MspInit+0x76>
 8000e62:	4b2e      	ldr	r3, [pc, #184]	@ (8000f1c <HAL_UART_MspInit+0xd4>)
 8000e64:	2400      	movs	r4, #0
 8000e66:	9401      	str	r4, [sp, #4]
 8000e68:	6c5a      	ldr	r2, [r3, #68]	@ 0x44
 8000e6a:	f042 0210 	orr.w	r2, r2, #16
 8000e6e:	645a      	str	r2, [r3, #68]	@ 0x44
 8000e70:	6c5a      	ldr	r2, [r3, #68]	@ 0x44
 8000e72:	f002 0210 	and.w	r2, r2, #16
 8000e76:	9201      	str	r2, [sp, #4]
 8000e78:	9a01      	ldr	r2, [sp, #4]
 8000e7a:	9402      	str	r4, [sp, #8]
 8000e7c:	6b1a      	ldr	r2, [r3, #48]	@ 0x30
 8000e7e:	f042 0201 	orr.w	r2, r2, #1
 8000e82:	631a      	str	r2, [r3, #48]	@ 0x30
 8000e84:	6b1b      	ldr	r3, [r3, #48]	@ 0x30
 8000e86:	f003 0301 	and.w	r3, r3, #1
 8000e8a:	9302      	str	r3, [sp, #8]
 8000e8c:	9b02      	ldr	r3, [sp, #8]
 8000e8e:	f44f 4004 	mov.w	r0, #33792	@ 0x8400
 8000e92:	2302      	movs	r3, #2
 8000e94:	e9cd 0305 	strd	r0, r3, [sp, #20]
 8000e98:	f04f 0c03 	mov.w	ip, #3
 8000e9c:	2307      	movs	r3, #7
 8000e9e:	4820      	ldr	r0, [pc, #128]	@ (8000f20 <HAL_UART_MspInit+0xd8>)
 8000ea0:	a905      	add	r1, sp, #20
 8000ea2:	e9cd c308 	strd	ip, r3, [sp, #32]
 8000ea6:	f000 fcd5 	bl	8001854 <HAL_GPIO_Init>
 8000eaa:	2025      	movs	r0, #37	@ 0x25
 8000eac:	4622      	mov	r2, r4
 8000eae:	4621      	mov	r1, r4
 8000eb0:	f000 fada 	bl	8001468 <HAL_NVIC_SetPriority>
 8000eb4:	2025      	movs	r0, #37	@ 0x25
 8000eb6:	f000 fb09 	bl	80014cc <HAL_NVIC_EnableIRQ>
 8000eba:	b00a      	add	sp, #40	@ 0x28
 8000ebc:	bd10      	pop	{r4, pc}
 8000ebe:	4a19      	ldr	r2, [pc, #100]	@ (8000f24 <HAL_UART_MspInit+0xdc>)
 8000ec0:	4293      	cmp	r3, r2
 8000ec2:	d1fa      	bne.n	8000eba <HAL_UART_MspInit+0x72>
 8000ec4:	4b15      	ldr	r3, [pc, #84]	@ (8000f1c <HAL_UART_MspInit+0xd4>)
 8000ec6:	4816      	ldr	r0, [pc, #88]	@ (8000f20 <HAL_UART_MspInit+0xd8>)
 8000ec8:	2400      	movs	r4, #0
 8000eca:	9403      	str	r4, [sp, #12]
 8000ecc:	6c1a      	ldr	r2, [r3, #64]	@ 0x40
 8000ece:	f442 3200 	orr.w	r2, r2, #131072	@ 0x20000
 8000ed2:	641a      	str	r2, [r3, #64]	@ 0x40
 8000ed4:	6c1a      	ldr	r2, [r3, #64]	@ 0x40
 8000ed6:	f402 3200 	and.w	r2, r2, #131072	@ 0x20000
 8000eda:	9203      	str	r2, [sp, #12]
 8000edc:	9a03      	ldr	r2, [sp, #12]
 8000ede:	9404      	str	r4, [sp, #16]
 8000ee0:	6b1a      	ldr	r2, [r3, #48]	@ 0x30
 8000ee2:	f042 0201 	orr.w	r2, r2, #1
 8000ee6:	631a      	str	r2, [r3, #48]	@ 0x30
 8000ee8:	6b1b      	ldr	r3, [r3, #48]	@ 0x30
 8000eea:	f003 0301 	and.w	r3, r3, #1
 8000eee:	9304      	str	r3, [sp, #16]
 8000ef0:	220c      	movs	r2, #12
 8000ef2:	9b04      	ldr	r3, [sp, #16]
 8000ef4:	2302      	movs	r3, #2
 8000ef6:	e9cd 2305 	strd	r2, r3, [sp, #20]
 8000efa:	2103      	movs	r1, #3
 8000efc:	2307      	movs	r3, #7
 8000efe:	e9cd 1308 	strd	r1, r3, [sp, #32]
 8000f02:	a905      	add	r1, sp, #20
 8000f04:	f000 fca6 	bl	8001854 <HAL_GPIO_Init>
 8000f08:	2026      	movs	r0, #38	@ 0x26
 8000f0a:	4622      	mov	r2, r4
 8000f0c:	4621      	mov	r1, r4
 8000f0e:	f000 faab 	bl	8001468 <HAL_NVIC_SetPriority>
 8000f12:	2026      	movs	r0, #38	@ 0x26
 8000f14:	e7cf      	b.n	8000eb6 <HAL_UART_MspInit+0x6e>
 8000f16:	bf00      	nop
 8000f18:	40011000 	.word	0x40011000
 8000f1c:	40023800 	.word	0x40023800
 8000f20:	40020000 	.word	0x40020000
 8000f24:	40004400 	.word	0x40004400

08000f28 <Reset_Handler>:
 8000f28:	f8df d034 	ldr.w	sp, [pc, #52]	@ 8000f60 <LoopFillZerobss+0xe>
 8000f2c:	f7ff fdfc 	bl	8000b28 <SystemInit>
 8000f30:	480c      	ldr	r0, [pc, #48]	@ (8000f64 <LoopFillZerobss+0x12>)
 8000f32:	490d      	ldr	r1, [pc, #52]	@ (8000f68 <LoopFillZerobss+0x16>)
 8000f34:	4a0d      	ldr	r2, [pc, #52]	@ (8000f6c <LoopFillZerobss+0x1a>)
 8000f36:	2300      	movs	r3, #0
 8000f38:	e002      	b.n	8000f40 <LoopCopyDataInit>

08000f3a <CopyDataInit>:
 8000f3a:	58d4      	ldr	r4, [r2, r3]
 8000f3c:	50c4      	str	r4, [r0, r3]
 8000f3e:	3304      	adds	r3, #4

08000f40 <LoopCopyDataInit>:
 8000f40:	18c4      	adds	r4, r0, r3
 8000f42:	428c      	cmp	r4, r1
 8000f44:	d3f9      	bcc.n	8000f3a <CopyDataInit>
 8000f46:	4a0a      	ldr	r2, [pc, #40]	@ (8000f70 <LoopFillZerobss+0x1e>)
 8000f48:	4c0a      	ldr	r4, [pc, #40]	@ (8000f74 <LoopFillZerobss+0x22>)
 8000f4a:	2300      	movs	r3, #0
 8000f4c:	e001      	b.n	8000f52 <LoopFillZerobss>

08000f4e <FillZerobss>:
 8000f4e:	6013      	str	r3, [r2, #0]
 8000f50:	3204      	adds	r2, #4

08000f52 <LoopFillZerobss>:
 8000f52:	42a2      	cmp	r2, r4
 8000f54:	d3fb      	bcc.n	8000f4e <FillZerobss>
 8000f56:	f001 fd1f 	bl	8002998 <__libc_init_array>
 8000f5a:	f7ff fcdf 	bl	800091c <main>
 8000f5e:	4770      	bx	lr
 8000f60:	20020000 	.word	0x20020000
 8000f64:	20000000 	.word	0x20000000
 8000f68:	2000005c 	.word	0x2000005c
 8000f6c:	08003338 	.word	0x08003338
 8000f70:	2000005c 	.word	0x2000005c
 8000f74:	20000350 	.word	0x20000350

08000f78 <ADC_IRQHandler>:
 8000f78:	e7fe      	b.n	8000f78 <ADC_IRQHandler>
	...

08000f7c <HAL_InitTick>:
 8000f7c:	b538      	push	{r3, r4, r5, lr}
 8000f7e:	4b0e      	ldr	r3, [pc, #56]	@ (8000fb8 <HAL_InitTick+0x3c>)
 8000f80:	781a      	ldrb	r2, [r3, #0]
 8000f82:	f44f 737a 	mov.w	r3, #1000	@ 0x3e8
 8000f86:	fbb3 f3f2 	udiv	r3, r3, r2
 8000f8a:	4a0c      	ldr	r2, [pc, #48]	@ (8000fbc <HAL_InitTick+0x40>)
 8000f8c:	4605      	mov	r5, r0
 8000f8e:	6810      	ldr	r0, [r2, #0]
 8000f90:	fbb0 f0f3 	udiv	r0, r0, r3
 8000f94:	f000 faa8 	bl	80014e8 <HAL_SYSTICK_Config>
 8000f98:	4604      	mov	r4, r0
 8000f9a:	b958      	cbnz	r0, 8000fb4 <HAL_InitTick+0x38>
 8000f9c:	2d0f      	cmp	r5, #15
 8000f9e:	d809      	bhi.n	8000fb4 <HAL_InitTick+0x38>
 8000fa0:	4602      	mov	r2, r0
 8000fa2:	4629      	mov	r1, r5
 8000fa4:	f04f 30ff 	mov.w	r0, #4294967295	@ 0xffffffff
 8000fa8:	f000 fa5e 	bl	8001468 <HAL_NVIC_SetPriority>
 8000fac:	4b04      	ldr	r3, [pc, #16]	@ (8000fc0 <HAL_InitTick+0x44>)
 8000fae:	4620      	mov	r0, r4
 8000fb0:	601d      	str	r5, [r3, #0]
 8000fb2:	bd38      	pop	{r3, r4, r5, pc}
 8000fb4:	2001      	movs	r0, #1
 8000fb6:	e7fc      	b.n	8000fb2 <HAL_InitTick+0x36>
 8000fb8:	20000004 	.word	0x20000004
 8000fbc:	20000000 	.word	0x20000000
 8000fc0:	20000008 	.word	0x20000008

08000fc4 <HAL_Init>:
 8000fc4:	b508      	push	{r3, lr}
 8000fc6:	4b0b      	ldr	r3, [pc, #44]	@ (8000ff4 <HAL_Init+0x30>)
 8000fc8:	681a      	ldr	r2, [r3, #0]
 8000fca:	f442 7200 	orr.w	r2, r2, #512	@ 0x200
 8000fce:	601a      	str	r2, [r3, #0]
 8000fd0:	681a      	ldr	r2, [r3, #0]
 8000fd2:	f442 6280 	orr.w	r2, r2, #1024	@ 0x400
 8000fd6:	601a      	str	r2, [r3, #0]
 8000fd8:	681a      	ldr	r2, [r3, #0]
 8000fda:	f442 7280 	orr.w	r2, r2, #256	@ 0x100
 8000fde:	601a      	str	r2, [r3, #0]
 8000fe0:	2003      	movs	r0, #3
 8000fe2:	f000 fa2f 	bl	8001444 <HAL_NVIC_SetPriorityGrouping>
 8000fe6:	200f      	movs	r0, #15
 8000fe8:	f7ff ffc8 	bl	8000f7c <HAL_InitTick>
 8000fec:	f7ff fd44 	bl	8000a78 <HAL_MspInit>
 8000ff0:	2000      	movs	r0, #0
 8000ff2:	bd08      	pop	{r3, pc}
 8000ff4:	40023c00 	.word	0x40023c00

08000ff8 <HAL_IncTick>:
 8000ff8:	4a03      	ldr	r2, [pc, #12]	@ (8001008 <HAL_IncTick+0x10>)
 8000ffa:	4b04      	ldr	r3, [pc, #16]	@ (800100c <HAL_IncTick+0x14>)
 8000ffc:	6811      	ldr	r1, [r2, #0]
 8000ffe:	781b      	ldrb	r3, [r3, #0]
 8001000:	440b      	add	r3, r1
 8001002:	6013      	str	r3, [r2, #0]
 8001004:	4770      	bx	lr
 8001006:	bf00      	nop
 8001008:	20000204 	.word	0x20000204
 800100c:	20000004 	.word	0x20000004

08001010 <HAL_GetTick>:
 8001010:	4b01      	ldr	r3, [pc, #4]	@ (8001018 <HAL_GetTick+0x8>)
 8001012:	6818      	ldr	r0, [r3, #0]
 8001014:	4770      	bx	lr
 8001016:	bf00      	nop
 8001018:	20000204 	.word	0x20000204

0800101c <HAL_Delay>:
 800101c:	b538      	push	{r3, r4, r5, lr}
 800101e:	4604      	mov	r4, r0
 8001020:	f7ff fff6 	bl	8001010 <HAL_GetTick>
 8001024:	1c63      	adds	r3, r4, #1
 8001026:	bf1c      	itt	ne
 8001028:	4b05      	ldrne	r3, [pc, #20]	@ (8001040 <HAL_Delay+0x24>)
 800102a:	781b      	ldrbne	r3, [r3, #0]
 800102c:	4605      	mov	r5, r0
 800102e:	bf18      	it	ne
 8001030:	18e4      	addne	r4, r4, r3
 8001032:	f7ff ffed 	bl	8001010 <HAL_GetTick>
 8001036:	1b43      	subs	r3, r0, r5
 8001038:	42a3      	cmp	r3, r4
 800103a:	d3fa      	bcc.n	8001032 <HAL_Delay+0x16>
 800103c:	bd38      	pop	{r3, r4, r5, pc}
 800103e:	bf00      	nop
 8001040:	20000004 	.word	0x20000004

08001044 <HAL_ADC_Init>:
 8001044:	b538      	push	{r3, r4, r5, lr}
 8001046:	4604      	mov	r4, r0
 8001048:	2800      	cmp	r0, #0
 800104a:	f000 809b 	beq.w	8001184 <HAL_ADC_Init+0x140>
 800104e:	6c05      	ldr	r5, [r0, #64]	@ 0x40
 8001050:	b925      	cbnz	r5, 800105c <HAL_ADC_Init+0x18>
 8001052:	f7ff fae7 	bl	8000624 <HAL_ADC_MspInit>
 8001056:	6465      	str	r5, [r4, #68]	@ 0x44
 8001058:	f884 503c 	strb.w	r5, [r4, #60]	@ 0x3c
 800105c:	6c23      	ldr	r3, [r4, #64]	@ 0x40
 800105e:	06db      	lsls	r3, r3, #27
 8001060:	f100 808e 	bmi.w	8001180 <HAL_ADC_Init+0x13c>
 8001064:	6c23      	ldr	r3, [r4, #64]	@ 0x40
 8001066:	f423 5388 	bic.w	r3, r3, #4352	@ 0x1100
 800106a:	f023 0302 	bic.w	r3, r3, #2
 800106e:	f043 0302 	orr.w	r3, r3, #2
 8001072:	6423      	str	r3, [r4, #64]	@ 0x40
 8001074:	4b44      	ldr	r3, [pc, #272]	@ (8001188 <HAL_ADC_Init+0x144>)
 8001076:	685a      	ldr	r2, [r3, #4]
 8001078:	f422 3240 	bic.w	r2, r2, #196608	@ 0x30000
 800107c:	605a      	str	r2, [r3, #4]
 800107e:	685a      	ldr	r2, [r3, #4]
 8001080:	6861      	ldr	r1, [r4, #4]
 8001082:	430a      	orrs	r2, r1
 8001084:	605a      	str	r2, [r3, #4]
 8001086:	6823      	ldr	r3, [r4, #0]
 8001088:	6921      	ldr	r1, [r4, #16]
 800108a:	685a      	ldr	r2, [r3, #4]
 800108c:	f422 7280 	bic.w	r2, r2, #256	@ 0x100
 8001090:	605a      	str	r2, [r3, #4]
 8001092:	685a      	ldr	r2, [r3, #4]
 8001094:	ea42 2201 	orr.w	r2, r2, r1, lsl #8
 8001098:	605a      	str	r2, [r3, #4]
 800109a:	685a      	ldr	r2, [r3, #4]
 800109c:	68a1      	ldr	r1, [r4, #8]
 800109e:	f022 7240 	bic.w	r2, r2, #50331648	@ 0x3000000
 80010a2:	605a      	str	r2, [r3, #4]
 80010a4:	685a      	ldr	r2, [r3, #4]
 80010a6:	430a      	orrs	r2, r1
 80010a8:	605a      	str	r2, [r3, #4]
 80010aa:	689a      	ldr	r2, [r3, #8]
 80010ac:	68e1      	ldr	r1, [r4, #12]
 80010ae:	f422 6200 	bic.w	r2, r2, #2048	@ 0x800
 80010b2:	609a      	str	r2, [r3, #8]
 80010b4:	689a      	ldr	r2, [r3, #8]
 80010b6:	430a      	orrs	r2, r1
 80010b8:	609a      	str	r2, [r3, #8]
 80010ba:	4934      	ldr	r1, [pc, #208]	@ (800118c <HAL_ADC_Init+0x148>)
 80010bc:	6aa2      	ldr	r2, [r4, #40]	@ 0x28
 80010be:	428a      	cmp	r2, r1
 80010c0:	d052      	beq.n	8001168 <HAL_ADC_Init+0x124>
 80010c2:	6899      	ldr	r1, [r3, #8]
 80010c4:	f021 6170 	bic.w	r1, r1, #251658240	@ 0xf000000
 80010c8:	6099      	str	r1, [r3, #8]
 80010ca:	6899      	ldr	r1, [r3, #8]
 80010cc:	430a      	orrs	r2, r1
 80010ce:	609a      	str	r2, [r3, #8]
 80010d0:	689a      	ldr	r2, [r3, #8]
 80010d2:	6ae1      	ldr	r1, [r4, #44]	@ 0x2c
 80010d4:	f022 5240 	bic.w	r2, r2, #805306368	@ 0x30000000
 80010d8:	609a      	str	r2, [r3, #8]
 80010da:	689a      	ldr	r2, [r3, #8]
 80010dc:	430a      	orrs	r2, r1
 80010de:	609a      	str	r2, [r3, #8]
 80010e0:	689a      	ldr	r2, [r3, #8]
 80010e2:	f022 0202 	bic.w	r2, r2, #2
 80010e6:	609a      	str	r2, [r3, #8]
 80010e8:	689a      	ldr	r2, [r3, #8]
 80010ea:	7e21      	ldrb	r1, [r4, #24]
 80010ec:	ea42 0241 	orr.w	r2, r2, r1, lsl #1
 80010f0:	609a      	str	r2, [r3, #8]
 80010f2:	f894 2020 	ldrb.w	r2, [r4, #32]
 80010f6:	2a00      	cmp	r2, #0
 80010f8:	d03e      	beq.n	8001178 <HAL_ADC_Init+0x134>
 80010fa:	685a      	ldr	r2, [r3, #4]
 80010fc:	6a61      	ldr	r1, [r4, #36]	@ 0x24
 80010fe:	f442 6200 	orr.w	r2, r2, #2048	@ 0x800
 8001102:	605a      	str	r2, [r3, #4]
 8001104:	685a      	ldr	r2, [r3, #4]
 8001106:	f422 4260 	bic.w	r2, r2, #57344	@ 0xe000
 800110a:	605a      	str	r2, [r3, #4]
 800110c:	685a      	ldr	r2, [r3, #4]
 800110e:	3901      	subs	r1, #1
 8001110:	ea42 3241 	orr.w	r2, r2, r1, lsl #13
 8001114:	605a      	str	r2, [r3, #4]
 8001116:	6ada      	ldr	r2, [r3, #44]	@ 0x2c
 8001118:	69e1      	ldr	r1, [r4, #28]
 800111a:	f422 0270 	bic.w	r2, r2, #15728640	@ 0xf00000
 800111e:	62da      	str	r2, [r3, #44]	@ 0x2c
 8001120:	6ada      	ldr	r2, [r3, #44]	@ 0x2c
 8001122:	3901      	subs	r1, #1
 8001124:	ea42 5201 	orr.w	r2, r2, r1, lsl #20
 8001128:	62da      	str	r2, [r3, #44]	@ 0x2c
 800112a:	689a      	ldr	r2, [r3, #8]
 800112c:	f422 7200 	bic.w	r2, r2, #512	@ 0x200
 8001130:	609a      	str	r2, [r3, #8]
 8001132:	689a      	ldr	r2, [r3, #8]
 8001134:	f894 1030 	ldrb.w	r1, [r4, #48]	@ 0x30
 8001138:	ea42 2241 	orr.w	r2, r2, r1, lsl #9
 800113c:	609a      	str	r2, [r3, #8]
 800113e:	689a      	ldr	r2, [r3, #8]
 8001140:	6961      	ldr	r1, [r4, #20]
 8001142:	f422 6280 	bic.w	r2, r2, #1024	@ 0x400
 8001146:	609a      	str	r2, [r3, #8]
 8001148:	689a      	ldr	r2, [r3, #8]
 800114a:	2000      	movs	r0, #0
 800114c:	ea42 2281 	orr.w	r2, r2, r1, lsl #10
 8001150:	609a      	str	r2, [r3, #8]
 8001152:	6460      	str	r0, [r4, #68]	@ 0x44
 8001154:	6c23      	ldr	r3, [r4, #64]	@ 0x40
 8001156:	f023 0303 	bic.w	r3, r3, #3
 800115a:	f043 0301 	orr.w	r3, r3, #1
 800115e:	6423      	str	r3, [r4, #64]	@ 0x40
 8001160:	2300      	movs	r3, #0
 8001162:	f884 303c 	strb.w	r3, [r4, #60]	@ 0x3c
 8001166:	bd38      	pop	{r3, r4, r5, pc}
 8001168:	689a      	ldr	r2, [r3, #8]
 800116a:	f022 6270 	bic.w	r2, r2, #251658240	@ 0xf000000
 800116e:	609a      	str	r2, [r3, #8]
 8001170:	689a      	ldr	r2, [r3, #8]
 8001172:	f022 5240 	bic.w	r2, r2, #805306368	@ 0x30000000
 8001176:	e7b2      	b.n	80010de <HAL_ADC_Init+0x9a>
 8001178:	685a      	ldr	r2, [r3, #4]
 800117a:	f422 6200 	bic.w	r2, r2, #2048	@ 0x800
 800117e:	e7c9      	b.n	8001114 <HAL_ADC_Init+0xd0>
 8001180:	2001      	movs	r0, #1
 8001182:	e7ed      	b.n	8001160 <HAL_ADC_Init+0x11c>
 8001184:	2001      	movs	r0, #1
 8001186:	e7ee      	b.n	8001166 <HAL_ADC_Init+0x122>
 8001188:	40012300 	.word	0x40012300
 800118c:	0f000001 	.word	0x0f000001

08001190 <HAL_ADC_Start>:
 8001190:	b082      	sub	sp, #8
 8001192:	2300      	movs	r3, #0
 8001194:	9301      	str	r3, [sp, #4]
 8001196:	f890 303c 	ldrb.w	r3, [r0, #60]	@ 0x3c
 800119a:	2b01      	cmp	r3, #1
 800119c:	d056      	beq.n	800124c <HAL_ADC_Start+0xbc>
 800119e:	2301      	movs	r3, #1
 80011a0:	f880 303c 	strb.w	r3, [r0, #60]	@ 0x3c
 80011a4:	6803      	ldr	r3, [r0, #0]
 80011a6:	689a      	ldr	r2, [r3, #8]
 80011a8:	07d1      	lsls	r1, r2, #31
 80011aa:	d50b      	bpl.n	80011c4 <HAL_ADC_Start+0x34>
 80011ac:	689a      	ldr	r2, [r3, #8]
 80011ae:	07d2      	lsls	r2, r2, #31
 80011b0:	d41a      	bmi.n	80011e8 <HAL_ADC_Start+0x58>
 80011b2:	6c03      	ldr	r3, [r0, #64]	@ 0x40
 80011b4:	f043 0310 	orr.w	r3, r3, #16
 80011b8:	6403      	str	r3, [r0, #64]	@ 0x40
 80011ba:	6c43      	ldr	r3, [r0, #68]	@ 0x44
 80011bc:	f043 0301 	orr.w	r3, r3, #1
 80011c0:	6443      	str	r3, [r0, #68]	@ 0x44
 80011c2:	e040      	b.n	8001246 <HAL_ADC_Start+0xb6>
 80011c4:	689a      	ldr	r2, [r3, #8]
 80011c6:	4922      	ldr	r1, [pc, #136]	@ (8001250 <HAL_ADC_Start+0xc0>)
 80011c8:	f042 0201 	orr.w	r2, r2, #1
 80011cc:	609a      	str	r2, [r3, #8]
 80011ce:	4a21      	ldr	r2, [pc, #132]	@ (8001254 <HAL_ADC_Start+0xc4>)
 80011d0:	6812      	ldr	r2, [r2, #0]
 80011d2:	fbb2 f2f1 	udiv	r2, r2, r1
 80011d6:	eb02 0242 	add.w	r2, r2, r2, lsl #1
 80011da:	9201      	str	r2, [sp, #4]
 80011dc:	9a01      	ldr	r2, [sp, #4]
 80011de:	2a00      	cmp	r2, #0
 80011e0:	d0e4      	beq.n	80011ac <HAL_ADC_Start+0x1c>
 80011e2:	9a01      	ldr	r2, [sp, #4]
 80011e4:	3a01      	subs	r2, #1
 80011e6:	e7f8      	b.n	80011da <HAL_ADC_Start+0x4a>
 80011e8:	6c02      	ldr	r2, [r0, #64]	@ 0x40
 80011ea:	f422 62e0 	bic.w	r2, r2, #1792	@ 0x700
 80011ee:	f022 0201 	bic.w	r2, r2, #1
 80011f2:	f442 7280 	orr.w	r2, r2, #256	@ 0x100
 80011f6:	6402      	str	r2, [r0, #64]	@ 0x40
 80011f8:	685a      	ldr	r2, [r3, #4]
 80011fa:	0551      	lsls	r1, r2, #21
 80011fc:	bf41      	itttt	mi
 80011fe:	6c02      	ldrmi	r2, [r0, #64]	@ 0x40
 8001200:	f422 5240 	bicmi.w	r2, r2, #12288	@ 0x3000
 8001204:	f442 5280 	orrmi.w	r2, r2, #4096	@ 0x1000
 8001208:	6402      	strmi	r2, [r0, #64]	@ 0x40
 800120a:	6c02      	ldr	r2, [r0, #64]	@ 0x40
 800120c:	f412 5280 	ands.w	r2, r2, #4096	@ 0x1000
 8001210:	bf1c      	itt	ne
 8001212:	6c42      	ldrne	r2, [r0, #68]	@ 0x44
 8001214:	f022 0206 	bicne.w	r2, r2, #6
 8001218:	6442      	str	r2, [r0, #68]	@ 0x44
 800121a:	2200      	movs	r2, #0
 800121c:	f880 203c 	strb.w	r2, [r0, #60]	@ 0x3c
 8001220:	f06f 0222 	mvn.w	r2, #34	@ 0x22
 8001224:	601a      	str	r2, [r3, #0]
 8001226:	4a0c      	ldr	r2, [pc, #48]	@ (8001258 <HAL_ADC_Start+0xc8>)
 8001228:	6852      	ldr	r2, [r2, #4]
 800122a:	06d2      	lsls	r2, r2, #27
 800122c:	d108      	bne.n	8001240 <HAL_ADC_Start+0xb0>
 800122e:	689a      	ldr	r2, [r3, #8]
 8001230:	f012 5f40 	tst.w	r2, #805306368	@ 0x30000000
 8001234:	bf02      	ittt	eq
 8001236:	689a      	ldreq	r2, [r3, #8]
 8001238:	f042 4280 	orreq.w	r2, r2, #1073741824	@ 0x40000000
 800123c:	609a      	streq	r2, [r3, #8]
 800123e:	e002      	b.n	8001246 <HAL_ADC_Start+0xb6>
 8001240:	4a06      	ldr	r2, [pc, #24]	@ (800125c <HAL_ADC_Start+0xcc>)
 8001242:	4293      	cmp	r3, r2
 8001244:	d0f3      	beq.n	800122e <HAL_ADC_Start+0x9e>
 8001246:	2000      	movs	r0, #0
 8001248:	b002      	add	sp, #8
 800124a:	4770      	bx	lr
 800124c:	2002      	movs	r0, #2
 800124e:	e7fb      	b.n	8001248 <HAL_ADC_Start+0xb8>
 8001250:	000f4240 	.word	0x000f4240
 8001254:	20000000 	.word	0x20000000
 8001258:	40012300 	.word	0x40012300
 800125c:	40012000 	.word	0x40012000

08001260 <HAL_ADC_PollForConversion>:
 8001260:	6803      	ldr	r3, [r0, #0]
 8001262:	689a      	ldr	r2, [r3, #8]
 8001264:	0552      	lsls	r2, r2, #21
 8001266:	b570      	push	{r4, r5, r6, lr}
 8001268:	4604      	mov	r4, r0
 800126a:	460d      	mov	r5, r1
 800126c:	d50b      	bpl.n	8001286 <HAL_ADC_PollForConversion+0x26>
 800126e:	689b      	ldr	r3, [r3, #8]
 8001270:	05de      	lsls	r6, r3, #23
 8001272:	d508      	bpl.n	8001286 <HAL_ADC_PollForConversion+0x26>
 8001274:	6c03      	ldr	r3, [r0, #64]	@ 0x40
 8001276:	f043 0320 	orr.w	r3, r3, #32
 800127a:	6403      	str	r3, [r0, #64]	@ 0x40
 800127c:	2300      	movs	r3, #0
 800127e:	f880 303c 	strb.w	r3, [r0, #60]	@ 0x3c
 8001282:	2001      	movs	r0, #1
 8001284:	bd70      	pop	{r4, r5, r6, pc}
 8001286:	f7ff fec3 	bl	8001010 <HAL_GetTick>
 800128a:	4606      	mov	r6, r0
 800128c:	6823      	ldr	r3, [r4, #0]
 800128e:	681a      	ldr	r2, [r3, #0]
 8001290:	0791      	lsls	r1, r2, #30
 8001292:	d50c      	bpl.n	80012ae <HAL_ADC_PollForConversion+0x4e>
 8001294:	f06f 0212 	mvn.w	r2, #18
 8001298:	601a      	str	r2, [r3, #0]
 800129a:	6c22      	ldr	r2, [r4, #64]	@ 0x40
 800129c:	f442 7200 	orr.w	r2, r2, #512	@ 0x200
 80012a0:	6422      	str	r2, [r4, #64]	@ 0x40
 80012a2:	689a      	ldr	r2, [r3, #8]
 80012a4:	f012 5f40 	tst.w	r2, #805306368	@ 0x30000000
 80012a8:	d017      	beq.n	80012da <HAL_ADC_PollForConversion+0x7a>
 80012aa:	2000      	movs	r0, #0
 80012ac:	e7ea      	b.n	8001284 <HAL_ADC_PollForConversion+0x24>
 80012ae:	1c68      	adds	r0, r5, #1
 80012b0:	d0ed      	beq.n	800128e <HAL_ADC_PollForConversion+0x2e>
 80012b2:	b965      	cbnz	r5, 80012ce <HAL_ADC_PollForConversion+0x6e>
 80012b4:	6823      	ldr	r3, [r4, #0]
 80012b6:	681b      	ldr	r3, [r3, #0]
 80012b8:	f013 0302 	ands.w	r3, r3, #2
 80012bc:	d1e6      	bne.n	800128c <HAL_ADC_PollForConversion+0x2c>
 80012be:	6c22      	ldr	r2, [r4, #64]	@ 0x40
 80012c0:	f884 303c 	strb.w	r3, [r4, #60]	@ 0x3c
 80012c4:	f042 0204 	orr.w	r2, r2, #4
 80012c8:	6422      	str	r2, [r4, #64]	@ 0x40
 80012ca:	2003      	movs	r0, #3
 80012cc:	e7da      	b.n	8001284 <HAL_ADC_PollForConversion+0x24>
 80012ce:	f7ff fe9f 	bl	8001010 <HAL_GetTick>
 80012d2:	1b80      	subs	r0, r0, r6
 80012d4:	42a8      	cmp	r0, r5
 80012d6:	d8ed      	bhi.n	80012b4 <HAL_ADC_PollForConversion+0x54>
 80012d8:	e7d8      	b.n	800128c <HAL_ADC_PollForConversion+0x2c>
 80012da:	7e22      	ldrb	r2, [r4, #24]
 80012dc:	2a00      	cmp	r2, #0
 80012de:	d1e4      	bne.n	80012aa <HAL_ADC_PollForConversion+0x4a>
 80012e0:	6ada      	ldr	r2, [r3, #44]	@ 0x2c
 80012e2:	f412 0f70 	tst.w	r2, #15728640	@ 0xf00000
 80012e6:	d002      	beq.n	80012ee <HAL_ADC_PollForConversion+0x8e>
 80012e8:	689b      	ldr	r3, [r3, #8]
 80012ea:	055a      	lsls	r2, r3, #21
 80012ec:	d4dd      	bmi.n	80012aa <HAL_ADC_PollForConversion+0x4a>
 80012ee:	6c23      	ldr	r3, [r4, #64]	@ 0x40
 80012f0:	f423 7380 	bic.w	r3, r3, #256	@ 0x100
 80012f4:	6423      	str	r3, [r4, #64]	@ 0x40
 80012f6:	6c23      	ldr	r3, [r4, #64]	@ 0x40
 80012f8:	04db      	lsls	r3, r3, #19
 80012fa:	d4d6      	bmi.n	80012aa <HAL_ADC_PollForConversion+0x4a>
 80012fc:	6c23      	ldr	r3, [r4, #64]	@ 0x40
 80012fe:	f043 0301 	orr.w	r3, r3, #1
 8001302:	6423      	str	r3, [r4, #64]	@ 0x40
 8001304:	e7d1      	b.n	80012aa <HAL_ADC_PollForConversion+0x4a>

08001306 <HAL_ADC_GetValue>:
 8001306:	6803      	ldr	r3, [r0, #0]
 8001308:	6cd8      	ldr	r0, [r3, #76]	@ 0x4c
 800130a:	4770      	bx	lr

0800130c <HAL_ADC_ConfigChannel>:
 800130c:	b5f7      	push	{r0, r1, r2, r4, r5, r6, r7, lr}
 800130e:	2300      	movs	r3, #0
 8001310:	9301      	str	r3, [sp, #4]
 8001312:	f890 303c 	ldrb.w	r3, [r0, #60]	@ 0x3c
 8001316:	2b01      	cmp	r3, #1
 8001318:	4605      	mov	r5, r0
 800131a:	f000 8086 	beq.w	800142a <HAL_ADC_ConfigChannel+0x11e>
 800131e:	2301      	movs	r3, #1
 8001320:	f880 303c 	strb.w	r3, [r0, #60]	@ 0x3c
 8001324:	6808      	ldr	r0, [r1, #0]
 8001326:	682b      	ldr	r3, [r5, #0]
 8001328:	688e      	ldr	r6, [r1, #8]
 800132a:	2809      	cmp	r0, #9
 800132c:	b284      	uxth	r4, r0
 800132e:	d933      	bls.n	8001398 <HAL_ADC_ConfigChannel+0x8c>
 8001330:	eb04 0244 	add.w	r2, r4, r4, lsl #1
 8001334:	68df      	ldr	r7, [r3, #12]
 8001336:	3a1e      	subs	r2, #30
 8001338:	f04f 0c07 	mov.w	ip, #7
 800133c:	fa0c fc02 	lsl.w	ip, ip, r2
 8001340:	ea27 070c 	bic.w	r7, r7, ip
 8001344:	60df      	str	r7, [r3, #12]
 8001346:	68df      	ldr	r7, [r3, #12]
 8001348:	fa06 f202 	lsl.w	r2, r6, r2
 800134c:	433a      	orrs	r2, r7
 800134e:	60da      	str	r2, [r3, #12]
 8001350:	6849      	ldr	r1, [r1, #4]
 8001352:	2906      	cmp	r1, #6
 8001354:	eb01 0281 	add.w	r2, r1, r1, lsl #2
 8001358:	d82d      	bhi.n	80013b6 <HAL_ADC_ConfigChannel+0xaa>
 800135a:	6b59      	ldr	r1, [r3, #52]	@ 0x34
 800135c:	3a05      	subs	r2, #5
 800135e:	261f      	movs	r6, #31
 8001360:	4096      	lsls	r6, r2
 8001362:	ea21 0106 	bic.w	r1, r1, r6
 8001366:	6359      	str	r1, [r3, #52]	@ 0x34
 8001368:	6b59      	ldr	r1, [r3, #52]	@ 0x34
 800136a:	fa04 f202 	lsl.w	r2, r4, r2
 800136e:	430a      	orrs	r2, r1
 8001370:	635a      	str	r2, [r3, #52]	@ 0x34
 8001372:	4a2f      	ldr	r2, [pc, #188]	@ (8001430 <HAL_ADC_ConfigChannel+0x124>)
 8001374:	4293      	cmp	r3, r2
 8001376:	d10a      	bne.n	800138e <HAL_ADC_ConfigChannel+0x82>
 8001378:	2812      	cmp	r0, #18
 800137a:	d137      	bne.n	80013ec <HAL_ADC_ConfigChannel+0xe0>
 800137c:	4b2d      	ldr	r3, [pc, #180]	@ (8001434 <HAL_ADC_ConfigChannel+0x128>)
 800137e:	685a      	ldr	r2, [r3, #4]
 8001380:	f422 0200 	bic.w	r2, r2, #8388608	@ 0x800000
 8001384:	605a      	str	r2, [r3, #4]
 8001386:	685a      	ldr	r2, [r3, #4]
 8001388:	f442 0280 	orr.w	r2, r2, #4194304	@ 0x400000
 800138c:	605a      	str	r2, [r3, #4]
 800138e:	2000      	movs	r0, #0
 8001390:	f885 003c 	strb.w	r0, [r5, #60]	@ 0x3c
 8001394:	b003      	add	sp, #12
 8001396:	bdf0      	pop	{r4, r5, r6, r7, pc}
 8001398:	691a      	ldr	r2, [r3, #16]
 800139a:	eb00 0c40 	add.w	ip, r0, r0, lsl #1
 800139e:	2707      	movs	r7, #7
 80013a0:	fa07 f70c 	lsl.w	r7, r7, ip
 80013a4:	ea22 0207 	bic.w	r2, r2, r7
 80013a8:	611a      	str	r2, [r3, #16]
 80013aa:	691a      	ldr	r2, [r3, #16]
 80013ac:	fa06 f60c 	lsl.w	r6, r6, ip
 80013b0:	4316      	orrs	r6, r2
 80013b2:	611e      	str	r6, [r3, #16]
 80013b4:	e7cc      	b.n	8001350 <HAL_ADC_ConfigChannel+0x44>
 80013b6:	290c      	cmp	r1, #12
 80013b8:	f04f 011f 	mov.w	r1, #31
 80013bc:	d80b      	bhi.n	80013d6 <HAL_ADC_ConfigChannel+0xca>
 80013be:	6b1e      	ldr	r6, [r3, #48]	@ 0x30
 80013c0:	3a23      	subs	r2, #35	@ 0x23
 80013c2:	4091      	lsls	r1, r2
 80013c4:	ea26 0101 	bic.w	r1, r6, r1
 80013c8:	6319      	str	r1, [r3, #48]	@ 0x30
 80013ca:	6b19      	ldr	r1, [r3, #48]	@ 0x30
 80013cc:	fa04 f202 	lsl.w	r2, r4, r2
 80013d0:	430a      	orrs	r2, r1
 80013d2:	631a      	str	r2, [r3, #48]	@ 0x30
 80013d4:	e7cd      	b.n	8001372 <HAL_ADC_ConfigChannel+0x66>
 80013d6:	6ade      	ldr	r6, [r3, #44]	@ 0x2c
 80013d8:	3a41      	subs	r2, #65	@ 0x41
 80013da:	4091      	lsls	r1, r2
 80013dc:	ea26 0101 	bic.w	r1, r6, r1
 80013e0:	62d9      	str	r1, [r3, #44]	@ 0x2c
 80013e2:	6ad9      	ldr	r1, [r3, #44]	@ 0x2c
 80013e4:	4094      	lsls	r4, r2
 80013e6:	430c      	orrs	r4, r1
 80013e8:	62dc      	str	r4, [r3, #44]	@ 0x2c
 80013ea:	e7c2      	b.n	8001372 <HAL_ADC_ConfigChannel+0x66>
 80013ec:	4b12      	ldr	r3, [pc, #72]	@ (8001438 <HAL_ADC_ConfigChannel+0x12c>)
 80013ee:	4298      	cmp	r0, r3
 80013f0:	d001      	beq.n	80013f6 <HAL_ADC_ConfigChannel+0xea>
 80013f2:	2811      	cmp	r0, #17
 80013f4:	d1cb      	bne.n	800138e <HAL_ADC_ConfigChannel+0x82>
 80013f6:	4b0f      	ldr	r3, [pc, #60]	@ (8001434 <HAL_ADC_ConfigChannel+0x128>)
 80013f8:	685a      	ldr	r2, [r3, #4]
 80013fa:	f422 0280 	bic.w	r2, r2, #4194304	@ 0x400000
 80013fe:	605a      	str	r2, [r3, #4]
 8001400:	685a      	ldr	r2, [r3, #4]
 8001402:	f442 0200 	orr.w	r2, r2, #8388608	@ 0x800000
 8001406:	605a      	str	r2, [r3, #4]
 8001408:	4b0b      	ldr	r3, [pc, #44]	@ (8001438 <HAL_ADC_ConfigChannel+0x12c>)
 800140a:	4298      	cmp	r0, r3
 800140c:	d1bf      	bne.n	800138e <HAL_ADC_ConfigChannel+0x82>
 800140e:	4b0b      	ldr	r3, [pc, #44]	@ (800143c <HAL_ADC_ConfigChannel+0x130>)
 8001410:	4a0b      	ldr	r2, [pc, #44]	@ (8001440 <HAL_ADC_ConfigChannel+0x134>)
 8001412:	681b      	ldr	r3, [r3, #0]
 8001414:	fbb3 f3f2 	udiv	r3, r3, r2
 8001418:	220a      	movs	r2, #10
 800141a:	4353      	muls	r3, r2
 800141c:	9301      	str	r3, [sp, #4]
 800141e:	9b01      	ldr	r3, [sp, #4]
 8001420:	2b00      	cmp	r3, #0
 8001422:	d0b4      	beq.n	800138e <HAL_ADC_ConfigChannel+0x82>
 8001424:	9b01      	ldr	r3, [sp, #4]
 8001426:	3b01      	subs	r3, #1
 8001428:	e7f8      	b.n	800141c <HAL_ADC_ConfigChannel+0x110>
 800142a:	2002      	movs	r0, #2
 800142c:	e7b2      	b.n	8001394 <HAL_ADC_ConfigChannel+0x88>
 800142e:	bf00      	nop
 8001430:	40012000 	.word	0x40012000
 8001434:	40012300 	.word	0x40012300
 8001438:	10000012 	.word	0x10000012
 800143c:	20000000 	.word	0x20000000
 8001440:	000f4240 	.word	0x000f4240

08001444 <HAL_NVIC_SetPriorityGrouping>:
 8001444:	4907      	ldr	r1, [pc, #28]	@ (8001464 <HAL_NVIC_SetPriorityGrouping+0x20>)
 8001446:	68ca      	ldr	r2, [r1, #12]
 8001448:	f422 62e0 	bic.w	r2, r2, #1792	@ 0x700
 800144c:	0203      	lsls	r3, r0, #8
 800144e:	0412      	lsls	r2, r2, #16
 8001450:	f403 63e0 	and.w	r3, r3, #1792	@ 0x700
 8001454:	0c12      	lsrs	r2, r2, #16
 8001456:	4313      	orrs	r3, r2
 8001458:	f043 63bf 	orr.w	r3, r3, #100139008	@ 0x5f80000
 800145c:	f443 3300 	orr.w	r3, r3, #131072	@ 0x20000
 8001460:	60cb      	str	r3, [r1, #12]
 8001462:	4770      	bx	lr
 8001464:	e000ed00 	.word	0xe000ed00

08001468 <HAL_NVIC_SetPriority>:
 8001468:	4b16      	ldr	r3, [pc, #88]	@ (80014c4 <HAL_NVIC_SetPriority+0x5c>)
 800146a:	b530      	push	{r4, r5, lr}
 800146c:	68dc      	ldr	r4, [r3, #12]
 800146e:	f3c4 2402 	ubfx	r4, r4, #8, #3
 8001472:	f1c4 0307 	rsb	r3, r4, #7
 8001476:	1d25      	adds	r5, r4, #4
 8001478:	2b04      	cmp	r3, #4
 800147a:	bf28      	it	cs
 800147c:	2304      	movcs	r3, #4
 800147e:	2d06      	cmp	r5, #6
 8001480:	f04f 35ff 	mov.w	r5, #4294967295	@ 0xffffffff
 8001484:	bf8c      	ite	hi
 8001486:	3c03      	subhi	r4, #3
 8001488:	2400      	movls	r4, #0
 800148a:	fa05 f303 	lsl.w	r3, r5, r3
 800148e:	ea21 0303 	bic.w	r3, r1, r3
 8001492:	40a5      	lsls	r5, r4
 8001494:	ea22 0205 	bic.w	r2, r2, r5
 8001498:	40a3      	lsls	r3, r4
 800149a:	2800      	cmp	r0, #0
 800149c:	ea43 0302 	orr.w	r3, r3, r2
 80014a0:	bfac      	ite	ge
 80014a2:	f100 4060 	addge.w	r0, r0, #3758096384	@ 0xe0000000
 80014a6:	4a08      	ldrlt	r2, [pc, #32]	@ (80014c8 <HAL_NVIC_SetPriority+0x60>)
 80014a8:	ea4f 1303 	mov.w	r3, r3, lsl #4
 80014ac:	bfb8      	it	lt
 80014ae:	f000 000f 	andlt.w	r0, r0, #15
 80014b2:	b2db      	uxtb	r3, r3
 80014b4:	bfaa      	itet	ge
 80014b6:	f500 4061 	addge.w	r0, r0, #57600	@ 0xe100
 80014ba:	5413      	strblt	r3, [r2, r0]
 80014bc:	f880 3300 	strbge.w	r3, [r0, #768]	@ 0x300
 80014c0:	bd30      	pop	{r4, r5, pc}
 80014c2:	bf00      	nop
 80014c4:	e000ed00 	.word	0xe000ed00
 80014c8:	e000ed14 	.word	0xe000ed14

080014cc <HAL_NVIC_EnableIRQ>:
 80014cc:	2800      	cmp	r0, #0
 80014ce:	db07      	blt.n	80014e0 <HAL_NVIC_EnableIRQ+0x14>
 80014d0:	4a04      	ldr	r2, [pc, #16]	@ (80014e4 <HAL_NVIC_EnableIRQ+0x18>)
 80014d2:	0941      	lsrs	r1, r0, #5
 80014d4:	2301      	movs	r3, #1
 80014d6:	f000 001f 	and.w	r0, r0, #31
 80014da:	4083      	lsls	r3, r0
 80014dc:	f842 3021 	str.w	r3, [r2, r1, lsl #2]
 80014e0:	4770      	bx	lr
 80014e2:	bf00      	nop
 80014e4:	e000e100 	.word	0xe000e100

080014e8 <HAL_SYSTICK_Config>:
 80014e8:	3801      	subs	r0, #1
 80014ea:	f1b0 7f80 	cmp.w	r0, #16777216	@ 0x1000000
 80014ee:	d20b      	bcs.n	8001508 <HAL_SYSTICK_Config+0x20>
 80014f0:	f04f 23e0 	mov.w	r3, #3758153728	@ 0xe000e000
 80014f4:	4a05      	ldr	r2, [pc, #20]	@ (800150c <HAL_SYSTICK_Config+0x24>)
 80014f6:	6158      	str	r0, [r3, #20]
 80014f8:	21f0      	movs	r1, #240	@ 0xf0
 80014fa:	f882 1023 	strb.w	r1, [r2, #35]	@ 0x23
 80014fe:	2000      	movs	r0, #0
 8001500:	2207      	movs	r2, #7
 8001502:	6198      	str	r0, [r3, #24]
 8001504:	611a      	str	r2, [r3, #16]
 8001506:	4770      	bx	lr
 8001508:	2001      	movs	r0, #1
 800150a:	4770      	bx	lr
 800150c:	e000ed00 	.word	0xe000ed00

08001510 <DMA_CalcBaseAndBitshift>:
 8001510:	6803      	ldr	r3, [r0, #0]
 8001512:	b510      	push	{r4, lr}
 8001514:	4c08      	ldr	r4, [pc, #32]	@ (8001538 <DMA_CalcBaseAndBitshift+0x28>)
 8001516:	4602      	mov	r2, r0
 8001518:	b2d9      	uxtb	r1, r3
 800151a:	3910      	subs	r1, #16
 800151c:	2018      	movs	r0, #24
 800151e:	fbb1 f0f0 	udiv	r0, r1, r0
 8001522:	5c20      	ldrb	r0, [r4, r0]
 8001524:	65d0      	str	r0, [r2, #92]	@ 0x5c
 8001526:	f423 707f 	bic.w	r0, r3, #1020	@ 0x3fc
 800152a:	f020 0003 	bic.w	r0, r0, #3
 800152e:	295f      	cmp	r1, #95	@ 0x5f
 8001530:	bf88      	it	hi
 8001532:	3004      	addhi	r0, #4
 8001534:	6590      	str	r0, [r2, #88]	@ 0x58
 8001536:	bd10      	pop	{r4, pc}
 8001538:	08003320 	.word	0x08003320

0800153c <HAL_DMA_Init>:
 800153c:	b570      	push	{r4, r5, r6, lr}
 800153e:	4604      	mov	r4, r0
 8001540:	f7ff fd66 	bl	8001010 <HAL_GetTick>
 8001544:	4605      	mov	r5, r0
 8001546:	2c00      	cmp	r4, #0
 8001548:	d060      	beq.n	800160c <HAL_DMA_Init+0xd0>
 800154a:	2302      	movs	r3, #2
 800154c:	f884 3035 	strb.w	r3, [r4, #53]	@ 0x35
 8001550:	6822      	ldr	r2, [r4, #0]
 8001552:	2300      	movs	r3, #0
 8001554:	f884 3034 	strb.w	r3, [r4, #52]	@ 0x34
 8001558:	6813      	ldr	r3, [r2, #0]
 800155a:	f023 0301 	bic.w	r3, r3, #1
 800155e:	6013      	str	r3, [r2, #0]
 8001560:	6822      	ldr	r2, [r4, #0]
 8001562:	6813      	ldr	r3, [r2, #0]
 8001564:	07d8      	lsls	r0, r3, #31
 8001566:	d42e      	bmi.n	80015c6 <HAL_DMA_Init+0x8a>
 8001568:	6813      	ldr	r3, [r2, #0]
 800156a:	4832      	ldr	r0, [pc, #200]	@ (8001634 <HAL_DMA_Init+0xf8>)
 800156c:	69a1      	ldr	r1, [r4, #24]
 800156e:	4018      	ands	r0, r3
 8001570:	e9d4 3501 	ldrd	r3, r5, [r4, #4]
 8001574:	432b      	orrs	r3, r5
 8001576:	68e5      	ldr	r5, [r4, #12]
 8001578:	432b      	orrs	r3, r5
 800157a:	6925      	ldr	r5, [r4, #16]
 800157c:	432b      	orrs	r3, r5
 800157e:	6965      	ldr	r5, [r4, #20]
 8001580:	432b      	orrs	r3, r5
 8001582:	69e5      	ldr	r5, [r4, #28]
 8001584:	430b      	orrs	r3, r1
 8001586:	432b      	orrs	r3, r5
 8001588:	6a25      	ldr	r5, [r4, #32]
 800158a:	432b      	orrs	r3, r5
 800158c:	4303      	orrs	r3, r0
 800158e:	6a60      	ldr	r0, [r4, #36]	@ 0x24
 8001590:	2804      	cmp	r0, #4
 8001592:	bf02      	ittt	eq
 8001594:	e9d4 560b 	ldrdeq	r5, r6, [r4, #44]	@ 0x2c
 8001598:	4335      	orreq	r5, r6
 800159a:	432b      	orreq	r3, r5
 800159c:	6013      	str	r3, [r2, #0]
 800159e:	6953      	ldr	r3, [r2, #20]
 80015a0:	2804      	cmp	r0, #4
 80015a2:	f023 0307 	bic.w	r3, r3, #7
 80015a6:	ea43 0300 	orr.w	r3, r3, r0
 80015aa:	d135      	bne.n	8001618 <HAL_DMA_Init+0xdc>
 80015ac:	6aa0      	ldr	r0, [r4, #40]	@ 0x28
 80015ae:	6ae5      	ldr	r5, [r4, #44]	@ 0x2c
 80015b0:	4303      	orrs	r3, r0
 80015b2:	b38d      	cbz	r5, 8001618 <HAL_DMA_Init+0xdc>
 80015b4:	b991      	cbnz	r1, 80015dc <HAL_DMA_Init+0xa0>
 80015b6:	2801      	cmp	r0, #1
 80015b8:	d020      	beq.n	80015fc <HAL_DMA_Init+0xc0>
 80015ba:	f030 0102 	bics.w	r1, r0, #2
 80015be:	d12b      	bne.n	8001618 <HAL_DMA_Init+0xdc>
 80015c0:	01e9      	lsls	r1, r5, #7
 80015c2:	d529      	bpl.n	8001618 <HAL_DMA_Init+0xdc>
 80015c4:	e01d      	b.n	8001602 <HAL_DMA_Init+0xc6>
 80015c6:	f7ff fd23 	bl	8001010 <HAL_GetTick>
 80015ca:	1b40      	subs	r0, r0, r5
 80015cc:	2805      	cmp	r0, #5
 80015ce:	d9c7      	bls.n	8001560 <HAL_DMA_Init+0x24>
 80015d0:	2320      	movs	r3, #32
 80015d2:	2003      	movs	r0, #3
 80015d4:	6563      	str	r3, [r4, #84]	@ 0x54
 80015d6:	f884 0035 	strb.w	r0, [r4, #53]	@ 0x35
 80015da:	bd70      	pop	{r4, r5, r6, pc}
 80015dc:	f5b1 5f00 	cmp.w	r1, #8192	@ 0x2000
 80015e0:	d116      	bne.n	8001610 <HAL_DMA_Init+0xd4>
 80015e2:	2803      	cmp	r0, #3
 80015e4:	d818      	bhi.n	8001618 <HAL_DMA_Init+0xdc>
 80015e6:	a101      	add	r1, pc, #4	@ (adr r1, 80015ec <HAL_DMA_Init+0xb0>)
 80015e8:	f851 f020 	ldr.w	pc, [r1, r0, lsl #2]
 80015ec:	08001603 	.word	0x08001603
 80015f0:	080015c1 	.word	0x080015c1
 80015f4:	08001603 	.word	0x08001603
 80015f8:	080015fd 	.word	0x080015fd
 80015fc:	f1b5 7fc0 	cmp.w	r5, #25165824	@ 0x1800000
 8001600:	d10a      	bne.n	8001618 <HAL_DMA_Init+0xdc>
 8001602:	2340      	movs	r3, #64	@ 0x40
 8001604:	6563      	str	r3, [r4, #84]	@ 0x54
 8001606:	2301      	movs	r3, #1
 8001608:	f884 3035 	strb.w	r3, [r4, #53]	@ 0x35
 800160c:	2001      	movs	r0, #1
 800160e:	e7e4      	b.n	80015da <HAL_DMA_Init+0x9e>
 8001610:	2802      	cmp	r0, #2
 8001612:	d9f6      	bls.n	8001602 <HAL_DMA_Init+0xc6>
 8001614:	2803      	cmp	r0, #3
 8001616:	d0d3      	beq.n	80015c0 <HAL_DMA_Init+0x84>
 8001618:	6153      	str	r3, [r2, #20]
 800161a:	4620      	mov	r0, r4
 800161c:	f7ff ff78 	bl	8001510 <DMA_CalcBaseAndBitshift>
 8001620:	6de2      	ldr	r2, [r4, #92]	@ 0x5c
 8001622:	233f      	movs	r3, #63	@ 0x3f
 8001624:	4093      	lsls	r3, r2
 8001626:	6083      	str	r3, [r0, #8]
 8001628:	2000      	movs	r0, #0
 800162a:	2301      	movs	r3, #1
 800162c:	6560      	str	r0, [r4, #84]	@ 0x54
 800162e:	f884 3035 	strb.w	r3, [r4, #53]	@ 0x35
 8001632:	e7d2      	b.n	80015da <HAL_DMA_Init+0x9e>
 8001634:	f010803f 	.word	0xf010803f

08001638 <HAL_DMA_Abort>:
 8001638:	b570      	push	{r4, r5, r6, lr}
 800163a:	4604      	mov	r4, r0
 800163c:	6d86      	ldr	r6, [r0, #88]	@ 0x58
 800163e:	f7ff fce7 	bl	8001010 <HAL_GetTick>
 8001642:	f894 3035 	ldrb.w	r3, [r4, #53]	@ 0x35
 8001646:	2b02      	cmp	r3, #2
 8001648:	4605      	mov	r5, r0
 800164a:	d006      	beq.n	800165a <HAL_DMA_Abort+0x22>
 800164c:	2380      	movs	r3, #128	@ 0x80
 800164e:	6563      	str	r3, [r4, #84]	@ 0x54
 8001650:	2001      	movs	r0, #1
 8001652:	2300      	movs	r3, #0
 8001654:	f884 3034 	strb.w	r3, [r4, #52]	@ 0x34
 8001658:	bd70      	pop	{r4, r5, r6, pc}
 800165a:	6823      	ldr	r3, [r4, #0]
 800165c:	681a      	ldr	r2, [r3, #0]
 800165e:	f022 0216 	bic.w	r2, r2, #22
 8001662:	601a      	str	r2, [r3, #0]
 8001664:	695a      	ldr	r2, [r3, #20]
 8001666:	f022 0280 	bic.w	r2, r2, #128	@ 0x80
 800166a:	615a      	str	r2, [r3, #20]
 800166c:	6c22      	ldr	r2, [r4, #64]	@ 0x40
 800166e:	b90a      	cbnz	r2, 8001674 <HAL_DMA_Abort+0x3c>
 8001670:	6ca2      	ldr	r2, [r4, #72]	@ 0x48
 8001672:	b11a      	cbz	r2, 800167c <HAL_DMA_Abort+0x44>
 8001674:	681a      	ldr	r2, [r3, #0]
 8001676:	f022 0208 	bic.w	r2, r2, #8
 800167a:	601a      	str	r2, [r3, #0]
 800167c:	681a      	ldr	r2, [r3, #0]
 800167e:	f022 0201 	bic.w	r2, r2, #1
 8001682:	601a      	str	r2, [r3, #0]
 8001684:	6823      	ldr	r3, [r4, #0]
 8001686:	6818      	ldr	r0, [r3, #0]
 8001688:	f010 0001 	ands.w	r0, r0, #1
 800168c:	d107      	bne.n	800169e <HAL_DMA_Abort+0x66>
 800168e:	6de2      	ldr	r2, [r4, #92]	@ 0x5c
 8001690:	233f      	movs	r3, #63	@ 0x3f
 8001692:	4093      	lsls	r3, r2
 8001694:	60b3      	str	r3, [r6, #8]
 8001696:	2301      	movs	r3, #1
 8001698:	f884 3035 	strb.w	r3, [r4, #53]	@ 0x35
 800169c:	e7d9      	b.n	8001652 <HAL_DMA_Abort+0x1a>
 800169e:	f7ff fcb7 	bl	8001010 <HAL_GetTick>
 80016a2:	1b40      	subs	r0, r0, r5
 80016a4:	2805      	cmp	r0, #5
 80016a6:	d9ed      	bls.n	8001684 <HAL_DMA_Abort+0x4c>
 80016a8:	2320      	movs	r3, #32
 80016aa:	2003      	movs	r0, #3
 80016ac:	6563      	str	r3, [r4, #84]	@ 0x54
 80016ae:	f884 0035 	strb.w	r0, [r4, #53]	@ 0x35
 80016b2:	e7ce      	b.n	8001652 <HAL_DMA_Abort+0x1a>

080016b4 <HAL_DMA_Abort_IT>:
 80016b4:	f890 3035 	ldrb.w	r3, [r0, #53]	@ 0x35
 80016b8:	2b02      	cmp	r3, #2
 80016ba:	d003      	beq.n	80016c4 <HAL_DMA_Abort_IT+0x10>
 80016bc:	2380      	movs	r3, #128	@ 0x80
 80016be:	6543      	str	r3, [r0, #84]	@ 0x54
 80016c0:	2001      	movs	r0, #1
 80016c2:	4770      	bx	lr
 80016c4:	6802      	ldr	r2, [r0, #0]
 80016c6:	2305      	movs	r3, #5
 80016c8:	f880 3035 	strb.w	r3, [r0, #53]	@ 0x35
 80016cc:	6813      	ldr	r3, [r2, #0]
 80016ce:	f023 0301 	bic.w	r3, r3, #1
 80016d2:	6013      	str	r3, [r2, #0]
 80016d4:	2000      	movs	r0, #0
 80016d6:	4770      	bx	lr

080016d8 <HAL_DMA_IRQHandler>:
 80016d8:	b5f7      	push	{r0, r1, r2, r4, r5, r6, r7, lr}
 80016da:	2300      	movs	r3, #0
 80016dc:	9301      	str	r3, [sp, #4]
 80016de:	4b5c      	ldr	r3, [pc, #368]	@ (8001850 <HAL_DMA_IRQHandler+0x178>)
 80016e0:	6d85      	ldr	r5, [r0, #88]	@ 0x58
 80016e2:	681f      	ldr	r7, [r3, #0]
 80016e4:	6dc3      	ldr	r3, [r0, #92]	@ 0x5c
 80016e6:	682e      	ldr	r6, [r5, #0]
 80016e8:	2208      	movs	r2, #8
 80016ea:	409a      	lsls	r2, r3
 80016ec:	4232      	tst	r2, r6
 80016ee:	4604      	mov	r4, r0
 80016f0:	d00c      	beq.n	800170c <HAL_DMA_IRQHandler+0x34>
 80016f2:	6801      	ldr	r1, [r0, #0]
 80016f4:	6808      	ldr	r0, [r1, #0]
 80016f6:	0740      	lsls	r0, r0, #29
 80016f8:	d508      	bpl.n	800170c <HAL_DMA_IRQHandler+0x34>
 80016fa:	6808      	ldr	r0, [r1, #0]
 80016fc:	f020 0004 	bic.w	r0, r0, #4
 8001700:	6008      	str	r0, [r1, #0]
 8001702:	60aa      	str	r2, [r5, #8]
 8001704:	6d62      	ldr	r2, [r4, #84]	@ 0x54
 8001706:	f042 0201 	orr.w	r2, r2, #1
 800170a:	6562      	str	r2, [r4, #84]	@ 0x54
 800170c:	2201      	movs	r2, #1
 800170e:	409a      	lsls	r2, r3
 8001710:	4232      	tst	r2, r6
 8001712:	d008      	beq.n	8001726 <HAL_DMA_IRQHandler+0x4e>
 8001714:	6821      	ldr	r1, [r4, #0]
 8001716:	6949      	ldr	r1, [r1, #20]
 8001718:	0609      	lsls	r1, r1, #24
 800171a:	bf41      	itttt	mi
 800171c:	60aa      	strmi	r2, [r5, #8]
 800171e:	6d62      	ldrmi	r2, [r4, #84]	@ 0x54
 8001720:	f042 0202 	orrmi.w	r2, r2, #2
 8001724:	6562      	strmi	r2, [r4, #84]	@ 0x54
 8001726:	2204      	movs	r2, #4
 8001728:	409a      	lsls	r2, r3
 800172a:	4232      	tst	r2, r6
 800172c:	d008      	beq.n	8001740 <HAL_DMA_IRQHandler+0x68>
 800172e:	6821      	ldr	r1, [r4, #0]
 8001730:	6809      	ldr	r1, [r1, #0]
 8001732:	0788      	lsls	r0, r1, #30
 8001734:	bf41      	itttt	mi
 8001736:	60aa      	strmi	r2, [r5, #8]
 8001738:	6d62      	ldrmi	r2, [r4, #84]	@ 0x54
 800173a:	f042 0204 	orrmi.w	r2, r2, #4
 800173e:	6562      	strmi	r2, [r4, #84]	@ 0x54
 8001740:	2210      	movs	r2, #16
 8001742:	409a      	lsls	r2, r3
 8001744:	4232      	tst	r2, r6
 8001746:	d010      	beq.n	800176a <HAL_DMA_IRQHandler+0x92>
 8001748:	6823      	ldr	r3, [r4, #0]
 800174a:	6819      	ldr	r1, [r3, #0]
 800174c:	0709      	lsls	r1, r1, #28
 800174e:	d50c      	bpl.n	800176a <HAL_DMA_IRQHandler+0x92>
 8001750:	60aa      	str	r2, [r5, #8]
 8001752:	681a      	ldr	r2, [r3, #0]
 8001754:	0350      	lsls	r0, r2, #13
 8001756:	d537      	bpl.n	80017c8 <HAL_DMA_IRQHandler+0xf0>
 8001758:	681b      	ldr	r3, [r3, #0]
 800175a:	0319      	lsls	r1, r3, #12
 800175c:	d401      	bmi.n	8001762 <HAL_DMA_IRQHandler+0x8a>
 800175e:	6c23      	ldr	r3, [r4, #64]	@ 0x40
 8001760:	e000      	b.n	8001764 <HAL_DMA_IRQHandler+0x8c>
 8001762:	6ca3      	ldr	r3, [r4, #72]	@ 0x48
 8001764:	b10b      	cbz	r3, 800176a <HAL_DMA_IRQHandler+0x92>
 8001766:	4620      	mov	r0, r4
 8001768:	4798      	blx	r3
 800176a:	6de1      	ldr	r1, [r4, #92]	@ 0x5c
 800176c:	2220      	movs	r2, #32
 800176e:	408a      	lsls	r2, r1
 8001770:	4232      	tst	r2, r6
 8001772:	d03a      	beq.n	80017ea <HAL_DMA_IRQHandler+0x112>
 8001774:	6823      	ldr	r3, [r4, #0]
 8001776:	6818      	ldr	r0, [r3, #0]
 8001778:	06c6      	lsls	r6, r0, #27
 800177a:	d536      	bpl.n	80017ea <HAL_DMA_IRQHandler+0x112>
 800177c:	60aa      	str	r2, [r5, #8]
 800177e:	f894 2035 	ldrb.w	r2, [r4, #53]	@ 0x35
 8001782:	2a05      	cmp	r2, #5
 8001784:	681a      	ldr	r2, [r3, #0]
 8001786:	d127      	bne.n	80017d8 <HAL_DMA_IRQHandler+0x100>
 8001788:	f022 0216 	bic.w	r2, r2, #22
 800178c:	601a      	str	r2, [r3, #0]
 800178e:	695a      	ldr	r2, [r3, #20]
 8001790:	f022 0280 	bic.w	r2, r2, #128	@ 0x80
 8001794:	615a      	str	r2, [r3, #20]
 8001796:	6c22      	ldr	r2, [r4, #64]	@ 0x40
 8001798:	b90a      	cbnz	r2, 800179e <HAL_DMA_IRQHandler+0xc6>
 800179a:	6ca2      	ldr	r2, [r4, #72]	@ 0x48
 800179c:	b11a      	cbz	r2, 80017a6 <HAL_DMA_IRQHandler+0xce>
 800179e:	681a      	ldr	r2, [r3, #0]
 80017a0:	f022 0208 	bic.w	r2, r2, #8
 80017a4:	601a      	str	r2, [r3, #0]
 80017a6:	233f      	movs	r3, #63	@ 0x3f
 80017a8:	408b      	lsls	r3, r1
 80017aa:	60ab      	str	r3, [r5, #8]
 80017ac:	2301      	movs	r3, #1
 80017ae:	f884 3035 	strb.w	r3, [r4, #53]	@ 0x35
 80017b2:	2300      	movs	r3, #0
 80017b4:	f884 3034 	strb.w	r3, [r4, #52]	@ 0x34
 80017b8:	6d23      	ldr	r3, [r4, #80]	@ 0x50
 80017ba:	2b00      	cmp	r3, #0
 80017bc:	d045      	beq.n	800184a <HAL_DMA_IRQHandler+0x172>
 80017be:	4620      	mov	r0, r4
 80017c0:	b003      	add	sp, #12
 80017c2:	e8bd 40f0 	ldmia.w	sp!, {r4, r5, r6, r7, lr}
 80017c6:	4718      	bx	r3
 80017c8:	681a      	ldr	r2, [r3, #0]
 80017ca:	05d2      	lsls	r2, r2, #23
 80017cc:	bf5e      	ittt	pl
 80017ce:	681a      	ldrpl	r2, [r3, #0]
 80017d0:	f022 0208 	bicpl.w	r2, r2, #8
 80017d4:	601a      	strpl	r2, [r3, #0]
 80017d6:	e7c2      	b.n	800175e <HAL_DMA_IRQHandler+0x86>
 80017d8:	0350      	lsls	r0, r2, #13
 80017da:	d527      	bpl.n	800182c <HAL_DMA_IRQHandler+0x154>
 80017dc:	681b      	ldr	r3, [r3, #0]
 80017de:	0319      	lsls	r1, r3, #12
 80017e0:	d431      	bmi.n	8001846 <HAL_DMA_IRQHandler+0x16e>
 80017e2:	6c63      	ldr	r3, [r4, #68]	@ 0x44
 80017e4:	b10b      	cbz	r3, 80017ea <HAL_DMA_IRQHandler+0x112>
 80017e6:	4620      	mov	r0, r4
 80017e8:	4798      	blx	r3
 80017ea:	6d63      	ldr	r3, [r4, #84]	@ 0x54
 80017ec:	b36b      	cbz	r3, 800184a <HAL_DMA_IRQHandler+0x172>
 80017ee:	6d63      	ldr	r3, [r4, #84]	@ 0x54
 80017f0:	07da      	lsls	r2, r3, #31
 80017f2:	d519      	bpl.n	8001828 <HAL_DMA_IRQHandler+0x150>
 80017f4:	6822      	ldr	r2, [r4, #0]
 80017f6:	f44f 5316 	mov.w	r3, #9600	@ 0x2580
 80017fa:	fbb7 f7f3 	udiv	r7, r7, r3
 80017fe:	2305      	movs	r3, #5
 8001800:	f884 3035 	strb.w	r3, [r4, #53]	@ 0x35
 8001804:	6813      	ldr	r3, [r2, #0]
 8001806:	f023 0301 	bic.w	r3, r3, #1
 800180a:	6013      	str	r3, [r2, #0]
 800180c:	9b01      	ldr	r3, [sp, #4]
 800180e:	3301      	adds	r3, #1
 8001810:	42bb      	cmp	r3, r7
 8001812:	9301      	str	r3, [sp, #4]
 8001814:	d802      	bhi.n	800181c <HAL_DMA_IRQHandler+0x144>
 8001816:	6813      	ldr	r3, [r2, #0]
 8001818:	07db      	lsls	r3, r3, #31
 800181a:	d4f7      	bmi.n	800180c <HAL_DMA_IRQHandler+0x134>
 800181c:	2301      	movs	r3, #1
 800181e:	f884 3035 	strb.w	r3, [r4, #53]	@ 0x35
 8001822:	2300      	movs	r3, #0
 8001824:	f884 3034 	strb.w	r3, [r4, #52]	@ 0x34
 8001828:	6ce3      	ldr	r3, [r4, #76]	@ 0x4c
 800182a:	e7c6      	b.n	80017ba <HAL_DMA_IRQHandler+0xe2>
 800182c:	681a      	ldr	r2, [r3, #0]
 800182e:	f412 7280 	ands.w	r2, r2, #256	@ 0x100
 8001832:	d108      	bne.n	8001846 <HAL_DMA_IRQHandler+0x16e>
 8001834:	6819      	ldr	r1, [r3, #0]
 8001836:	f021 0110 	bic.w	r1, r1, #16
 800183a:	6019      	str	r1, [r3, #0]
 800183c:	2301      	movs	r3, #1
 800183e:	f884 3035 	strb.w	r3, [r4, #53]	@ 0x35
 8001842:	f884 2034 	strb.w	r2, [r4, #52]	@ 0x34
 8001846:	6be3      	ldr	r3, [r4, #60]	@ 0x3c
 8001848:	e7cc      	b.n	80017e4 <HAL_DMA_IRQHandler+0x10c>
 800184a:	b003      	add	sp, #12
 800184c:	bdf0      	pop	{r4, r5, r6, r7, pc}
 800184e:	bf00      	nop
 8001850:	20000000 	.word	0x20000000

08001854 <HAL_GPIO_Init>:
 8001854:	e92d 4ff7 	stmdb	sp!, {r0, r1, r2, r4, r5, r6, r7, r8, r9, sl, fp, lr}
 8001858:	f8df 9180 	ldr.w	r9, [pc, #384]	@ 80019dc <HAL_GPIO_Init+0x188>
 800185c:	4a5d      	ldr	r2, [pc, #372]	@ (80019d4 <HAL_GPIO_Init+0x180>)
 800185e:	2300      	movs	r3, #0
 8001860:	680d      	ldr	r5, [r1, #0]
 8001862:	2401      	movs	r4, #1
 8001864:	409c      	lsls	r4, r3
 8001866:	ea04 0605 	and.w	r6, r4, r5
 800186a:	43ac      	bics	r4, r5
 800186c:	f040 80a3 	bne.w	80019b6 <HAL_GPIO_Init+0x162>
 8001870:	684d      	ldr	r5, [r1, #4]
 8001872:	2703      	movs	r7, #3
 8001874:	f005 0403 	and.w	r4, r5, #3
 8001878:	ea4f 0843 	mov.w	r8, r3, lsl #1
 800187c:	fa07 fc08 	lsl.w	ip, r7, r8
 8001880:	1e67      	subs	r7, r4, #1
 8001882:	2f01      	cmp	r7, #1
 8001884:	ea6f 0c0c 	mvn.w	ip, ip
 8001888:	d834      	bhi.n	80018f4 <HAL_GPIO_Init+0xa0>
 800188a:	6887      	ldr	r7, [r0, #8]
 800188c:	ea07 0e0c 	and.w	lr, r7, ip
 8001890:	68cf      	ldr	r7, [r1, #12]
 8001892:	fa07 f708 	lsl.w	r7, r7, r8
 8001896:	ea47 070e 	orr.w	r7, r7, lr
 800189a:	6087      	str	r7, [r0, #8]
 800189c:	6847      	ldr	r7, [r0, #4]
 800189e:	ea27 0e06 	bic.w	lr, r7, r6
 80018a2:	f3c5 1700 	ubfx	r7, r5, #4, #1
 80018a6:	409f      	lsls	r7, r3
 80018a8:	ea47 070e 	orr.w	r7, r7, lr
 80018ac:	6047      	str	r7, [r0, #4]
 80018ae:	68c7      	ldr	r7, [r0, #12]
 80018b0:	ea07 0e0c 	and.w	lr, r7, ip
 80018b4:	688f      	ldr	r7, [r1, #8]
 80018b6:	fa07 f708 	lsl.w	r7, r7, r8
 80018ba:	ea47 070e 	orr.w	r7, r7, lr
 80018be:	2c02      	cmp	r4, #2
 80018c0:	60c7      	str	r7, [r0, #12]
 80018c2:	d119      	bne.n	80018f8 <HAL_GPIO_Init+0xa4>
 80018c4:	ea4f 0ad3 	mov.w	sl, r3, lsr #3
 80018c8:	eb00 0a8a 	add.w	sl, r0, sl, lsl #2
 80018cc:	f003 0b07 	and.w	fp, r3, #7
 80018d0:	f8da 7020 	ldr.w	r7, [sl, #32]
 80018d4:	ea4f 0b8b 	mov.w	fp, fp, lsl #2
 80018d8:	f04f 0e0f 	mov.w	lr, #15
 80018dc:	fa0e fe0b 	lsl.w	lr, lr, fp
 80018e0:	ea27 0e0e 	bic.w	lr, r7, lr
 80018e4:	690f      	ldr	r7, [r1, #16]
 80018e6:	fa07 f70b 	lsl.w	r7, r7, fp
 80018ea:	ea47 070e 	orr.w	r7, r7, lr
 80018ee:	f8ca 7020 	str.w	r7, [sl, #32]
 80018f2:	e001      	b.n	80018f8 <HAL_GPIO_Init+0xa4>
 80018f4:	2c03      	cmp	r4, #3
 80018f6:	d1da      	bne.n	80018ae <HAL_GPIO_Init+0x5a>
 80018f8:	6807      	ldr	r7, [r0, #0]
 80018fa:	fa04 f408 	lsl.w	r4, r4, r8
 80018fe:	ea07 070c 	and.w	r7, r7, ip
 8001902:	433c      	orrs	r4, r7
 8001904:	f415 3f40 	tst.w	r5, #196608	@ 0x30000
 8001908:	6004      	str	r4, [r0, #0]
 800190a:	d054      	beq.n	80019b6 <HAL_GPIO_Init+0x162>
 800190c:	2400      	movs	r4, #0
 800190e:	9401      	str	r4, [sp, #4]
 8001910:	f8d9 4044 	ldr.w	r4, [r9, #68]	@ 0x44
 8001914:	f444 4480 	orr.w	r4, r4, #16384	@ 0x4000
 8001918:	f8c9 4044 	str.w	r4, [r9, #68]	@ 0x44
 800191c:	f8d9 4044 	ldr.w	r4, [r9, #68]	@ 0x44
 8001920:	f023 0703 	bic.w	r7, r3, #3
 8001924:	f107 4780 	add.w	r7, r7, #1073741824	@ 0x40000000
 8001928:	f404 4480 	and.w	r4, r4, #16384	@ 0x4000
 800192c:	f507 379c 	add.w	r7, r7, #79872	@ 0x13800
 8001930:	9401      	str	r4, [sp, #4]
 8001932:	f003 0c03 	and.w	ip, r3, #3
 8001936:	9c01      	ldr	r4, [sp, #4]
 8001938:	f8d7 e008 	ldr.w	lr, [r7, #8]
 800193c:	ea4f 0c8c 	mov.w	ip, ip, lsl #2
 8001940:	240f      	movs	r4, #15
 8001942:	fa04 f40c 	lsl.w	r4, r4, ip
 8001946:	ea2e 0e04 	bic.w	lr, lr, r4
 800194a:	4c23      	ldr	r4, [pc, #140]	@ (80019d8 <HAL_GPIO_Init+0x184>)
 800194c:	42a0      	cmp	r0, r4
 800194e:	d039      	beq.n	80019c4 <HAL_GPIO_Init+0x170>
 8001950:	f504 6480 	add.w	r4, r4, #1024	@ 0x400
 8001954:	42a0      	cmp	r0, r4
 8001956:	d037      	beq.n	80019c8 <HAL_GPIO_Init+0x174>
 8001958:	f504 6480 	add.w	r4, r4, #1024	@ 0x400
 800195c:	42a0      	cmp	r0, r4
 800195e:	d035      	beq.n	80019cc <HAL_GPIO_Init+0x178>
 8001960:	f504 6480 	add.w	r4, r4, #1024	@ 0x400
 8001964:	42a0      	cmp	r0, r4
 8001966:	d033      	beq.n	80019d0 <HAL_GPIO_Init+0x17c>
 8001968:	f504 6480 	add.w	r4, r4, #1024	@ 0x400
 800196c:	42a0      	cmp	r0, r4
 800196e:	bf14      	ite	ne
 8001970:	2407      	movne	r4, #7
 8001972:	2404      	moveq	r4, #4
 8001974:	fa04 f40c 	lsl.w	r4, r4, ip
 8001978:	ea44 040e 	orr.w	r4, r4, lr
 800197c:	60bc      	str	r4, [r7, #8]
 800197e:	6894      	ldr	r4, [r2, #8]
 8001980:	43f7      	mvns	r7, r6
 8001982:	f415 1f80 	tst.w	r5, #1048576	@ 0x100000
 8001986:	bf0c      	ite	eq
 8001988:	403c      	andeq	r4, r7
 800198a:	4334      	orrne	r4, r6
 800198c:	6094      	str	r4, [r2, #8]
 800198e:	68d4      	ldr	r4, [r2, #12]
 8001990:	f415 1f00 	tst.w	r5, #2097152	@ 0x200000
 8001994:	bf0c      	ite	eq
 8001996:	403c      	andeq	r4, r7
 8001998:	4334      	orrne	r4, r6
 800199a:	60d4      	str	r4, [r2, #12]
 800199c:	6854      	ldr	r4, [r2, #4]
 800199e:	f415 3f00 	tst.w	r5, #131072	@ 0x20000
 80019a2:	bf0c      	ite	eq
 80019a4:	403c      	andeq	r4, r7
 80019a6:	4334      	orrne	r4, r6
 80019a8:	6054      	str	r4, [r2, #4]
 80019aa:	6814      	ldr	r4, [r2, #0]
 80019ac:	03ed      	lsls	r5, r5, #15
 80019ae:	bf54      	ite	pl
 80019b0:	403c      	andpl	r4, r7
 80019b2:	4334      	orrmi	r4, r6
 80019b4:	6014      	str	r4, [r2, #0]
 80019b6:	3301      	adds	r3, #1
 80019b8:	2b10      	cmp	r3, #16
 80019ba:	f47f af51 	bne.w	8001860 <HAL_GPIO_Init+0xc>
 80019be:	b003      	add	sp, #12
 80019c0:	e8bd 8ff0 	ldmia.w	sp!, {r4, r5, r6, r7, r8, r9, sl, fp, pc}
 80019c4:	2400      	movs	r4, #0
 80019c6:	e7d5      	b.n	8001974 <HAL_GPIO_Init+0x120>
 80019c8:	2401      	movs	r4, #1
 80019ca:	e7d3      	b.n	8001974 <HAL_GPIO_Init+0x120>
 80019cc:	2402      	movs	r4, #2
 80019ce:	e7d1      	b.n	8001974 <HAL_GPIO_Init+0x120>
 80019d0:	2403      	movs	r4, #3
 80019d2:	e7cf      	b.n	8001974 <HAL_GPIO_Init+0x120>
 80019d4:	40013c00 	.word	0x40013c00
 80019d8:	40020000 	.word	0x40020000
 80019dc:	40023800 	.word	0x40023800

080019e0 <HAL_GPIO_WritePin>:
 80019e0:	b10a      	cbz	r2, 80019e6 <HAL_GPIO_WritePin+0x6>
 80019e2:	6181      	str	r1, [r0, #24]
 80019e4:	4770      	bx	lr
 80019e6:	0409      	lsls	r1, r1, #16
 80019e8:	e7fb      	b.n	80019e2 <HAL_GPIO_WritePin+0x2>
	...

080019ec <HAL_RCC_OscConfig>:
 80019ec:	e92d 41f3 	stmdb	sp!, {r0, r1, r4, r5, r6, r7, r8, lr}
 80019f0:	4604      	mov	r4, r0
 80019f2:	b340      	cbz	r0, 8001a46 <HAL_RCC_OscConfig+0x5a>
 80019f4:	6803      	ldr	r3, [r0, #0]
 80019f6:	07de      	lsls	r6, r3, #31
 80019f8:	d410      	bmi.n	8001a1c <HAL_RCC_OscConfig+0x30>
 80019fa:	6823      	ldr	r3, [r4, #0]
 80019fc:	079d      	lsls	r5, r3, #30
 80019fe:	d45b      	bmi.n	8001ab8 <HAL_RCC_OscConfig+0xcc>
 8001a00:	6823      	ldr	r3, [r4, #0]
 8001a02:	0719      	lsls	r1, r3, #28
 8001a04:	f100 809d 	bmi.w	8001b42 <HAL_RCC_OscConfig+0x156>
 8001a08:	6823      	ldr	r3, [r4, #0]
 8001a0a:	075a      	lsls	r2, r3, #29
 8001a0c:	f100 80bd 	bmi.w	8001b8a <HAL_RCC_OscConfig+0x19e>
 8001a10:	69a3      	ldr	r3, [r4, #24]
 8001a12:	2b00      	cmp	r3, #0
 8001a14:	f040 8124 	bne.w	8001c60 <HAL_RCC_OscConfig+0x274>
 8001a18:	2000      	movs	r0, #0
 8001a1a:	e02c      	b.n	8001a76 <HAL_RCC_OscConfig+0x8a>
 8001a1c:	4b8d      	ldr	r3, [pc, #564]	@ (8001c54 <HAL_RCC_OscConfig+0x268>)
 8001a1e:	689a      	ldr	r2, [r3, #8]
 8001a20:	f002 020c 	and.w	r2, r2, #12
 8001a24:	2a04      	cmp	r2, #4
 8001a26:	d007      	beq.n	8001a38 <HAL_RCC_OscConfig+0x4c>
 8001a28:	689a      	ldr	r2, [r3, #8]
 8001a2a:	f002 020c 	and.w	r2, r2, #12
 8001a2e:	2a08      	cmp	r2, #8
 8001a30:	d10b      	bne.n	8001a4a <HAL_RCC_OscConfig+0x5e>
 8001a32:	685b      	ldr	r3, [r3, #4]
 8001a34:	0259      	lsls	r1, r3, #9
 8001a36:	d508      	bpl.n	8001a4a <HAL_RCC_OscConfig+0x5e>
 8001a38:	4b86      	ldr	r3, [pc, #536]	@ (8001c54 <HAL_RCC_OscConfig+0x268>)
 8001a3a:	681b      	ldr	r3, [r3, #0]
 8001a3c:	039a      	lsls	r2, r3, #14
 8001a3e:	d5dc      	bpl.n	80019fa <HAL_RCC_OscConfig+0xe>
 8001a40:	6863      	ldr	r3, [r4, #4]
 8001a42:	2b00      	cmp	r3, #0
 8001a44:	d1d9      	bne.n	80019fa <HAL_RCC_OscConfig+0xe>
 8001a46:	2001      	movs	r0, #1
 8001a48:	e015      	b.n	8001a76 <HAL_RCC_OscConfig+0x8a>
 8001a4a:	6863      	ldr	r3, [r4, #4]
 8001a4c:	4d81      	ldr	r5, [pc, #516]	@ (8001c54 <HAL_RCC_OscConfig+0x268>)
 8001a4e:	f5b3 3f80 	cmp.w	r3, #65536	@ 0x10000
 8001a52:	d113      	bne.n	8001a7c <HAL_RCC_OscConfig+0x90>
 8001a54:	682b      	ldr	r3, [r5, #0]
 8001a56:	f443 3380 	orr.w	r3, r3, #65536	@ 0x10000
 8001a5a:	602b      	str	r3, [r5, #0]
 8001a5c:	f7ff fad8 	bl	8001010 <HAL_GetTick>
 8001a60:	4e7c      	ldr	r6, [pc, #496]	@ (8001c54 <HAL_RCC_OscConfig+0x268>)
 8001a62:	4605      	mov	r5, r0
 8001a64:	6833      	ldr	r3, [r6, #0]
 8001a66:	039b      	lsls	r3, r3, #14
 8001a68:	d4c7      	bmi.n	80019fa <HAL_RCC_OscConfig+0xe>
 8001a6a:	f7ff fad1 	bl	8001010 <HAL_GetTick>
 8001a6e:	1b40      	subs	r0, r0, r5
 8001a70:	2864      	cmp	r0, #100	@ 0x64
 8001a72:	d9f7      	bls.n	8001a64 <HAL_RCC_OscConfig+0x78>
 8001a74:	2003      	movs	r0, #3
 8001a76:	b002      	add	sp, #8
 8001a78:	e8bd 81f0 	ldmia.w	sp!, {r4, r5, r6, r7, r8, pc}
 8001a7c:	f5b3 2fa0 	cmp.w	r3, #327680	@ 0x50000
 8001a80:	d104      	bne.n	8001a8c <HAL_RCC_OscConfig+0xa0>
 8001a82:	682b      	ldr	r3, [r5, #0]
 8001a84:	f443 2380 	orr.w	r3, r3, #262144	@ 0x40000
 8001a88:	602b      	str	r3, [r5, #0]
 8001a8a:	e7e3      	b.n	8001a54 <HAL_RCC_OscConfig+0x68>
 8001a8c:	682a      	ldr	r2, [r5, #0]
 8001a8e:	f422 3280 	bic.w	r2, r2, #65536	@ 0x10000
 8001a92:	602a      	str	r2, [r5, #0]
 8001a94:	682a      	ldr	r2, [r5, #0]
 8001a96:	f422 2280 	bic.w	r2, r2, #262144	@ 0x40000
 8001a9a:	602a      	str	r2, [r5, #0]
 8001a9c:	2b00      	cmp	r3, #0
 8001a9e:	d1dd      	bne.n	8001a5c <HAL_RCC_OscConfig+0x70>
 8001aa0:	f7ff fab6 	bl	8001010 <HAL_GetTick>
 8001aa4:	4606      	mov	r6, r0
 8001aa6:	682b      	ldr	r3, [r5, #0]
 8001aa8:	039f      	lsls	r7, r3, #14
 8001aaa:	d5a6      	bpl.n	80019fa <HAL_RCC_OscConfig+0xe>
 8001aac:	f7ff fab0 	bl	8001010 <HAL_GetTick>
 8001ab0:	1b80      	subs	r0, r0, r6
 8001ab2:	2864      	cmp	r0, #100	@ 0x64
 8001ab4:	d9f7      	bls.n	8001aa6 <HAL_RCC_OscConfig+0xba>
 8001ab6:	e7dd      	b.n	8001a74 <HAL_RCC_OscConfig+0x88>
 8001ab8:	4b66      	ldr	r3, [pc, #408]	@ (8001c54 <HAL_RCC_OscConfig+0x268>)
 8001aba:	689a      	ldr	r2, [r3, #8]
 8001abc:	f012 0f0c 	tst.w	r2, #12
 8001ac0:	d007      	beq.n	8001ad2 <HAL_RCC_OscConfig+0xe6>
 8001ac2:	689a      	ldr	r2, [r3, #8]
 8001ac4:	f002 020c 	and.w	r2, r2, #12
 8001ac8:	2a08      	cmp	r2, #8
 8001aca:	d111      	bne.n	8001af0 <HAL_RCC_OscConfig+0x104>
 8001acc:	685b      	ldr	r3, [r3, #4]
 8001ace:	025d      	lsls	r5, r3, #9
 8001ad0:	d40e      	bmi.n	8001af0 <HAL_RCC_OscConfig+0x104>
 8001ad2:	4a60      	ldr	r2, [pc, #384]	@ (8001c54 <HAL_RCC_OscConfig+0x268>)
 8001ad4:	6813      	ldr	r3, [r2, #0]
 8001ad6:	0799      	lsls	r1, r3, #30
 8001ad8:	d502      	bpl.n	8001ae0 <HAL_RCC_OscConfig+0xf4>
 8001ada:	68e3      	ldr	r3, [r4, #12]
 8001adc:	2b01      	cmp	r3, #1
 8001ade:	d1b2      	bne.n	8001a46 <HAL_RCC_OscConfig+0x5a>
 8001ae0:	6813      	ldr	r3, [r2, #0]
 8001ae2:	6921      	ldr	r1, [r4, #16]
 8001ae4:	f023 03f8 	bic.w	r3, r3, #248	@ 0xf8
 8001ae8:	ea43 03c1 	orr.w	r3, r3, r1, lsl #3
 8001aec:	6013      	str	r3, [r2, #0]
 8001aee:	e787      	b.n	8001a00 <HAL_RCC_OscConfig+0x14>
 8001af0:	68e2      	ldr	r2, [r4, #12]
 8001af2:	4b59      	ldr	r3, [pc, #356]	@ (8001c58 <HAL_RCC_OscConfig+0x26c>)
 8001af4:	b1b2      	cbz	r2, 8001b24 <HAL_RCC_OscConfig+0x138>
 8001af6:	2201      	movs	r2, #1
 8001af8:	601a      	str	r2, [r3, #0]
 8001afa:	f7ff fa89 	bl	8001010 <HAL_GetTick>
 8001afe:	4d55      	ldr	r5, [pc, #340]	@ (8001c54 <HAL_RCC_OscConfig+0x268>)
 8001b00:	4606      	mov	r6, r0
 8001b02:	682b      	ldr	r3, [r5, #0]
 8001b04:	079b      	lsls	r3, r3, #30
 8001b06:	d507      	bpl.n	8001b18 <HAL_RCC_OscConfig+0x12c>
 8001b08:	682b      	ldr	r3, [r5, #0]
 8001b0a:	6922      	ldr	r2, [r4, #16]
 8001b0c:	f023 03f8 	bic.w	r3, r3, #248	@ 0xf8
 8001b10:	ea43 03c2 	orr.w	r3, r3, r2, lsl #3
 8001b14:	602b      	str	r3, [r5, #0]
 8001b16:	e773      	b.n	8001a00 <HAL_RCC_OscConfig+0x14>
 8001b18:	f7ff fa7a 	bl	8001010 <HAL_GetTick>
 8001b1c:	1b80      	subs	r0, r0, r6
 8001b1e:	2802      	cmp	r0, #2
 8001b20:	d9ef      	bls.n	8001b02 <HAL_RCC_OscConfig+0x116>
 8001b22:	e7a7      	b.n	8001a74 <HAL_RCC_OscConfig+0x88>
 8001b24:	601a      	str	r2, [r3, #0]
 8001b26:	f7ff fa73 	bl	8001010 <HAL_GetTick>
 8001b2a:	4e4a      	ldr	r6, [pc, #296]	@ (8001c54 <HAL_RCC_OscConfig+0x268>)
 8001b2c:	4605      	mov	r5, r0
 8001b2e:	6833      	ldr	r3, [r6, #0]
 8001b30:	079f      	lsls	r7, r3, #30
 8001b32:	f57f af65 	bpl.w	8001a00 <HAL_RCC_OscConfig+0x14>
 8001b36:	f7ff fa6b 	bl	8001010 <HAL_GetTick>
 8001b3a:	1b40      	subs	r0, r0, r5
 8001b3c:	2802      	cmp	r0, #2
 8001b3e:	d9f6      	bls.n	8001b2e <HAL_RCC_OscConfig+0x142>
 8001b40:	e798      	b.n	8001a74 <HAL_RCC_OscConfig+0x88>
 8001b42:	6962      	ldr	r2, [r4, #20]
 8001b44:	4b44      	ldr	r3, [pc, #272]	@ (8001c58 <HAL_RCC_OscConfig+0x26c>)
 8001b46:	b182      	cbz	r2, 8001b6a <HAL_RCC_OscConfig+0x17e>
 8001b48:	2201      	movs	r2, #1
 8001b4a:	f8c3 2e80 	str.w	r2, [r3, #3712]	@ 0xe80
 8001b4e:	f7ff fa5f 	bl	8001010 <HAL_GetTick>
 8001b52:	4e40      	ldr	r6, [pc, #256]	@ (8001c54 <HAL_RCC_OscConfig+0x268>)
 8001b54:	4605      	mov	r5, r0
 8001b56:	6f73      	ldr	r3, [r6, #116]	@ 0x74
 8001b58:	079b      	lsls	r3, r3, #30
 8001b5a:	f53f af55 	bmi.w	8001a08 <HAL_RCC_OscConfig+0x1c>
 8001b5e:	f7ff fa57 	bl	8001010 <HAL_GetTick>
 8001b62:	1b40      	subs	r0, r0, r5
 8001b64:	2802      	cmp	r0, #2
 8001b66:	d9f6      	bls.n	8001b56 <HAL_RCC_OscConfig+0x16a>
 8001b68:	e784      	b.n	8001a74 <HAL_RCC_OscConfig+0x88>
 8001b6a:	f8c3 2e80 	str.w	r2, [r3, #3712]	@ 0xe80
 8001b6e:	f7ff fa4f 	bl	8001010 <HAL_GetTick>
 8001b72:	4e38      	ldr	r6, [pc, #224]	@ (8001c54 <HAL_RCC_OscConfig+0x268>)
 8001b74:	4605      	mov	r5, r0
 8001b76:	6f73      	ldr	r3, [r6, #116]	@ 0x74
 8001b78:	079f      	lsls	r7, r3, #30
 8001b7a:	f57f af45 	bpl.w	8001a08 <HAL_RCC_OscConfig+0x1c>
 8001b7e:	f7ff fa47 	bl	8001010 <HAL_GetTick>
 8001b82:	1b40      	subs	r0, r0, r5
 8001b84:	2802      	cmp	r0, #2
 8001b86:	d9f6      	bls.n	8001b76 <HAL_RCC_OscConfig+0x18a>
 8001b88:	e774      	b.n	8001a74 <HAL_RCC_OscConfig+0x88>
 8001b8a:	4b32      	ldr	r3, [pc, #200]	@ (8001c54 <HAL_RCC_OscConfig+0x268>)
 8001b8c:	6c1a      	ldr	r2, [r3, #64]	@ 0x40
 8001b8e:	f012 5280 	ands.w	r2, r2, #268435456	@ 0x10000000
 8001b92:	d128      	bne.n	8001be6 <HAL_RCC_OscConfig+0x1fa>
 8001b94:	9201      	str	r2, [sp, #4]
 8001b96:	6c1a      	ldr	r2, [r3, #64]	@ 0x40
 8001b98:	f042 5280 	orr.w	r2, r2, #268435456	@ 0x10000000
 8001b9c:	641a      	str	r2, [r3, #64]	@ 0x40
 8001b9e:	6c1b      	ldr	r3, [r3, #64]	@ 0x40
 8001ba0:	f003 5380 	and.w	r3, r3, #268435456	@ 0x10000000
 8001ba4:	9301      	str	r3, [sp, #4]
 8001ba6:	9b01      	ldr	r3, [sp, #4]
 8001ba8:	2701      	movs	r7, #1
 8001baa:	4d2c      	ldr	r5, [pc, #176]	@ (8001c5c <HAL_RCC_OscConfig+0x270>)
 8001bac:	682b      	ldr	r3, [r5, #0]
 8001bae:	05d8      	lsls	r0, r3, #23
 8001bb0:	d51b      	bpl.n	8001bea <HAL_RCC_OscConfig+0x1fe>
 8001bb2:	68a3      	ldr	r3, [r4, #8]
 8001bb4:	4d27      	ldr	r5, [pc, #156]	@ (8001c54 <HAL_RCC_OscConfig+0x268>)
 8001bb6:	2b01      	cmp	r3, #1
 8001bb8:	d127      	bne.n	8001c0a <HAL_RCC_OscConfig+0x21e>
 8001bba:	6f2b      	ldr	r3, [r5, #112]	@ 0x70
 8001bbc:	f043 0301 	orr.w	r3, r3, #1
 8001bc0:	672b      	str	r3, [r5, #112]	@ 0x70
 8001bc2:	f7ff fa25 	bl	8001010 <HAL_GetTick>
 8001bc6:	4e23      	ldr	r6, [pc, #140]	@ (8001c54 <HAL_RCC_OscConfig+0x268>)
 8001bc8:	4605      	mov	r5, r0
 8001bca:	f241 3888 	movw	r8, #5000	@ 0x1388
 8001bce:	6f33      	ldr	r3, [r6, #112]	@ 0x70
 8001bd0:	079a      	lsls	r2, r3, #30
 8001bd2:	d539      	bpl.n	8001c48 <HAL_RCC_OscConfig+0x25c>
 8001bd4:	2f00      	cmp	r7, #0
 8001bd6:	f43f af1b 	beq.w	8001a10 <HAL_RCC_OscConfig+0x24>
 8001bda:	4a1e      	ldr	r2, [pc, #120]	@ (8001c54 <HAL_RCC_OscConfig+0x268>)
 8001bdc:	6c13      	ldr	r3, [r2, #64]	@ 0x40
 8001bde:	f023 5380 	bic.w	r3, r3, #268435456	@ 0x10000000
 8001be2:	6413      	str	r3, [r2, #64]	@ 0x40
 8001be4:	e714      	b.n	8001a10 <HAL_RCC_OscConfig+0x24>
 8001be6:	2700      	movs	r7, #0
 8001be8:	e7df      	b.n	8001baa <HAL_RCC_OscConfig+0x1be>
 8001bea:	682b      	ldr	r3, [r5, #0]
 8001bec:	f443 7380 	orr.w	r3, r3, #256	@ 0x100
 8001bf0:	602b      	str	r3, [r5, #0]
 8001bf2:	f7ff fa0d 	bl	8001010 <HAL_GetTick>
 8001bf6:	4606      	mov	r6, r0
 8001bf8:	682b      	ldr	r3, [r5, #0]
 8001bfa:	05d9      	lsls	r1, r3, #23
 8001bfc:	d4d9      	bmi.n	8001bb2 <HAL_RCC_OscConfig+0x1c6>
 8001bfe:	f7ff fa07 	bl	8001010 <HAL_GetTick>
 8001c02:	1b80      	subs	r0, r0, r6
 8001c04:	2802      	cmp	r0, #2
 8001c06:	d9f7      	bls.n	8001bf8 <HAL_RCC_OscConfig+0x20c>
 8001c08:	e734      	b.n	8001a74 <HAL_RCC_OscConfig+0x88>
 8001c0a:	2b05      	cmp	r3, #5
 8001c0c:	d104      	bne.n	8001c18 <HAL_RCC_OscConfig+0x22c>
 8001c0e:	6f2b      	ldr	r3, [r5, #112]	@ 0x70
 8001c10:	f043 0304 	orr.w	r3, r3, #4
 8001c14:	672b      	str	r3, [r5, #112]	@ 0x70
 8001c16:	e7d0      	b.n	8001bba <HAL_RCC_OscConfig+0x1ce>
 8001c18:	6f2a      	ldr	r2, [r5, #112]	@ 0x70
 8001c1a:	f022 0201 	bic.w	r2, r2, #1
 8001c1e:	672a      	str	r2, [r5, #112]	@ 0x70
 8001c20:	6f2a      	ldr	r2, [r5, #112]	@ 0x70
 8001c22:	f022 0204 	bic.w	r2, r2, #4
 8001c26:	672a      	str	r2, [r5, #112]	@ 0x70
 8001c28:	2b00      	cmp	r3, #0
 8001c2a:	d1ca      	bne.n	8001bc2 <HAL_RCC_OscConfig+0x1d6>
 8001c2c:	f7ff f9f0 	bl	8001010 <HAL_GetTick>
 8001c30:	f241 3888 	movw	r8, #5000	@ 0x1388
 8001c34:	4606      	mov	r6, r0
 8001c36:	6f2b      	ldr	r3, [r5, #112]	@ 0x70
 8001c38:	079b      	lsls	r3, r3, #30
 8001c3a:	d5cb      	bpl.n	8001bd4 <HAL_RCC_OscConfig+0x1e8>
 8001c3c:	f7ff f9e8 	bl	8001010 <HAL_GetTick>
 8001c40:	1b80      	subs	r0, r0, r6
 8001c42:	4540      	cmp	r0, r8
 8001c44:	d9f7      	bls.n	8001c36 <HAL_RCC_OscConfig+0x24a>
 8001c46:	e715      	b.n	8001a74 <HAL_RCC_OscConfig+0x88>
 8001c48:	f7ff f9e2 	bl	8001010 <HAL_GetTick>
 8001c4c:	1b40      	subs	r0, r0, r5
 8001c4e:	4540      	cmp	r0, r8
 8001c50:	d9bd      	bls.n	8001bce <HAL_RCC_OscConfig+0x1e2>
 8001c52:	e70f      	b.n	8001a74 <HAL_RCC_OscConfig+0x88>
 8001c54:	40023800 	.word	0x40023800
 8001c58:	42470000 	.word	0x42470000
 8001c5c:	40007000 	.word	0x40007000
 8001c60:	4d37      	ldr	r5, [pc, #220]	@ (8001d40 <HAL_RCC_OscConfig+0x354>)
 8001c62:	68aa      	ldr	r2, [r5, #8]
 8001c64:	f002 020c 	and.w	r2, r2, #12
 8001c68:	2a08      	cmp	r2, #8
 8001c6a:	d03e      	beq.n	8001cea <HAL_RCC_OscConfig+0x2fe>
 8001c6c:	2b02      	cmp	r3, #2
 8001c6e:	4b35      	ldr	r3, [pc, #212]	@ (8001d44 <HAL_RCC_OscConfig+0x358>)
 8001c70:	f04f 0200 	mov.w	r2, #0
 8001c74:	661a      	str	r2, [r3, #96]	@ 0x60
 8001c76:	d12b      	bne.n	8001cd0 <HAL_RCC_OscConfig+0x2e4>
 8001c78:	f7ff f9ca 	bl	8001010 <HAL_GetTick>
 8001c7c:	4606      	mov	r6, r0
 8001c7e:	682b      	ldr	r3, [r5, #0]
 8001c80:	0199      	lsls	r1, r3, #6
 8001c82:	d41f      	bmi.n	8001cc4 <HAL_RCC_OscConfig+0x2d8>
 8001c84:	e9d4 3207 	ldrd	r3, r2, [r4, #28]
 8001c88:	4313      	orrs	r3, r2
 8001c8a:	6a62      	ldr	r2, [r4, #36]	@ 0x24
 8001c8c:	ea43 1382 	orr.w	r3, r3, r2, lsl #6
 8001c90:	6ae2      	ldr	r2, [r4, #44]	@ 0x2c
 8001c92:	ea43 6302 	orr.w	r3, r3, r2, lsl #24
 8001c96:	6aa2      	ldr	r2, [r4, #40]	@ 0x28
 8001c98:	0852      	lsrs	r2, r2, #1
 8001c9a:	3a01      	subs	r2, #1
 8001c9c:	ea43 4302 	orr.w	r3, r3, r2, lsl #16
 8001ca0:	606b      	str	r3, [r5, #4]
 8001ca2:	4b28      	ldr	r3, [pc, #160]	@ (8001d44 <HAL_RCC_OscConfig+0x358>)
 8001ca4:	4d26      	ldr	r5, [pc, #152]	@ (8001d40 <HAL_RCC_OscConfig+0x354>)
 8001ca6:	2201      	movs	r2, #1
 8001ca8:	661a      	str	r2, [r3, #96]	@ 0x60
 8001caa:	f7ff f9b1 	bl	8001010 <HAL_GetTick>
 8001cae:	4604      	mov	r4, r0
 8001cb0:	682b      	ldr	r3, [r5, #0]
 8001cb2:	019a      	lsls	r2, r3, #6
 8001cb4:	f53f aeb0 	bmi.w	8001a18 <HAL_RCC_OscConfig+0x2c>
 8001cb8:	f7ff f9aa 	bl	8001010 <HAL_GetTick>
 8001cbc:	1b00      	subs	r0, r0, r4
 8001cbe:	2802      	cmp	r0, #2
 8001cc0:	d9f6      	bls.n	8001cb0 <HAL_RCC_OscConfig+0x2c4>
 8001cc2:	e6d7      	b.n	8001a74 <HAL_RCC_OscConfig+0x88>
 8001cc4:	f7ff f9a4 	bl	8001010 <HAL_GetTick>
 8001cc8:	1b80      	subs	r0, r0, r6
 8001cca:	2802      	cmp	r0, #2
 8001ccc:	d9d7      	bls.n	8001c7e <HAL_RCC_OscConfig+0x292>
 8001cce:	e6d1      	b.n	8001a74 <HAL_RCC_OscConfig+0x88>
 8001cd0:	f7ff f99e 	bl	8001010 <HAL_GetTick>
 8001cd4:	4604      	mov	r4, r0
 8001cd6:	682b      	ldr	r3, [r5, #0]
 8001cd8:	019b      	lsls	r3, r3, #6
 8001cda:	f57f ae9d 	bpl.w	8001a18 <HAL_RCC_OscConfig+0x2c>
 8001cde:	f7ff f997 	bl	8001010 <HAL_GetTick>
 8001ce2:	1b00      	subs	r0, r0, r4
 8001ce4:	2802      	cmp	r0, #2
 8001ce6:	d9f6      	bls.n	8001cd6 <HAL_RCC_OscConfig+0x2ea>
 8001ce8:	e6c4      	b.n	8001a74 <HAL_RCC_OscConfig+0x88>
 8001cea:	2b01      	cmp	r3, #1
 8001cec:	f43f aeab 	beq.w	8001a46 <HAL_RCC_OscConfig+0x5a>
 8001cf0:	686b      	ldr	r3, [r5, #4]
 8001cf2:	69e2      	ldr	r2, [r4, #28]
 8001cf4:	f403 0180 	and.w	r1, r3, #4194304	@ 0x400000
 8001cf8:	4291      	cmp	r1, r2
 8001cfa:	f47f aea4 	bne.w	8001a46 <HAL_RCC_OscConfig+0x5a>
 8001cfe:	6a21      	ldr	r1, [r4, #32]
 8001d00:	f003 023f 	and.w	r2, r3, #63	@ 0x3f
 8001d04:	428a      	cmp	r2, r1
 8001d06:	f47f ae9e 	bne.w	8001a46 <HAL_RCC_OscConfig+0x5a>
 8001d0a:	6a61      	ldr	r1, [r4, #36]	@ 0x24
 8001d0c:	f647 72c0 	movw	r2, #32704	@ 0x7fc0
 8001d10:	401a      	ands	r2, r3
 8001d12:	ebb2 1f81 	cmp.w	r2, r1, lsl #6
 8001d16:	f47f ae96 	bne.w	8001a46 <HAL_RCC_OscConfig+0x5a>
 8001d1a:	6aa2      	ldr	r2, [r4, #40]	@ 0x28
 8001d1c:	0852      	lsrs	r2, r2, #1
 8001d1e:	f403 3140 	and.w	r1, r3, #196608	@ 0x30000
 8001d22:	3a01      	subs	r2, #1
 8001d24:	ebb1 4f02 	cmp.w	r1, r2, lsl #16
 8001d28:	f47f ae8d 	bne.w	8001a46 <HAL_RCC_OscConfig+0x5a>
 8001d2c:	6ae2      	ldr	r2, [r4, #44]	@ 0x2c
 8001d2e:	f003 6370 	and.w	r3, r3, #251658240	@ 0xf000000
 8001d32:	ebb3 6f02 	cmp.w	r3, r2, lsl #24
 8001d36:	bf14      	ite	ne
 8001d38:	2001      	movne	r0, #1
 8001d3a:	2000      	moveq	r0, #0
 8001d3c:	e69b      	b.n	8001a76 <HAL_RCC_OscConfig+0x8a>
 8001d3e:	bf00      	nop
 8001d40:	40023800 	.word	0x40023800
 8001d44:	42470000 	.word	0x42470000

08001d48 <HAL_RCC_GetSysClockFreq>:
 8001d48:	4913      	ldr	r1, [pc, #76]	@ (8001d98 <HAL_RCC_GetSysClockFreq+0x50>)
 8001d4a:	b508      	push	{r3, lr}
 8001d4c:	688b      	ldr	r3, [r1, #8]
 8001d4e:	f003 030c 	and.w	r3, r3, #12
 8001d52:	2b04      	cmp	r3, #4
 8001d54:	d01c      	beq.n	8001d90 <HAL_RCC_GetSysClockFreq+0x48>
 8001d56:	2b08      	cmp	r3, #8
 8001d58:	d11c      	bne.n	8001d94 <HAL_RCC_GetSysClockFreq+0x4c>
 8001d5a:	684a      	ldr	r2, [r1, #4]
 8001d5c:	684b      	ldr	r3, [r1, #4]
 8001d5e:	6849      	ldr	r1, [r1, #4]
 8001d60:	f413 0380 	ands.w	r3, r3, #4194304	@ 0x400000
 8001d64:	bf14      	ite	ne
 8001d66:	480d      	ldrne	r0, [pc, #52]	@ (8001d9c <HAL_RCC_GetSysClockFreq+0x54>)
 8001d68:	480d      	ldreq	r0, [pc, #52]	@ (8001da0 <HAL_RCC_GetSysClockFreq+0x58>)
 8001d6a:	f3c1 1188 	ubfx	r1, r1, #6, #9
 8001d6e:	bf18      	it	ne
 8001d70:	2300      	movne	r3, #0
 8001d72:	f002 023f 	and.w	r2, r2, #63	@ 0x3f
 8001d76:	fba1 0100 	umull	r0, r1, r1, r0
 8001d7a:	f7fe fa89 	bl	8000290 <__aeabi_uldivmod>
 8001d7e:	4b06      	ldr	r3, [pc, #24]	@ (8001d98 <HAL_RCC_GetSysClockFreq+0x50>)
 8001d80:	685b      	ldr	r3, [r3, #4]
 8001d82:	f3c3 4301 	ubfx	r3, r3, #16, #2
 8001d86:	3301      	adds	r3, #1
 8001d88:	005b      	lsls	r3, r3, #1
 8001d8a:	fbb0 f0f3 	udiv	r0, r0, r3
 8001d8e:	bd08      	pop	{r3, pc}
 8001d90:	4802      	ldr	r0, [pc, #8]	@ (8001d9c <HAL_RCC_GetSysClockFreq+0x54>)
 8001d92:	e7fc      	b.n	8001d8e <HAL_RCC_GetSysClockFreq+0x46>
 8001d94:	4802      	ldr	r0, [pc, #8]	@ (8001da0 <HAL_RCC_GetSysClockFreq+0x58>)
 8001d96:	e7fa      	b.n	8001d8e <HAL_RCC_GetSysClockFreq+0x46>
 8001d98:	40023800 	.word	0x40023800
 8001d9c:	007a1200 	.word	0x007a1200
 8001da0:	00f42400 	.word	0x00f42400

08001da4 <HAL_RCC_ClockConfig>:
 8001da4:	e92d 41f0 	stmdb	sp!, {r4, r5, r6, r7, r8, lr}
 8001da8:	460d      	mov	r5, r1
 8001daa:	4604      	mov	r4, r0
 8001dac:	b910      	cbnz	r0, 8001db4 <HAL_RCC_ClockConfig+0x10>
 8001dae:	2001      	movs	r0, #1
 8001db0:	e8bd 81f0 	ldmia.w	sp!, {r4, r5, r6, r7, r8, pc}
 8001db4:	4b43      	ldr	r3, [pc, #268]	@ (8001ec4 <HAL_RCC_ClockConfig+0x120>)
 8001db6:	681a      	ldr	r2, [r3, #0]
 8001db8:	f002 0207 	and.w	r2, r2, #7
 8001dbc:	428a      	cmp	r2, r1
 8001dbe:	d328      	bcc.n	8001e12 <HAL_RCC_ClockConfig+0x6e>
 8001dc0:	6821      	ldr	r1, [r4, #0]
 8001dc2:	078f      	lsls	r7, r1, #30
 8001dc4:	d42d      	bmi.n	8001e22 <HAL_RCC_ClockConfig+0x7e>
 8001dc6:	07c8      	lsls	r0, r1, #31
 8001dc8:	d440      	bmi.n	8001e4c <HAL_RCC_ClockConfig+0xa8>
 8001dca:	4b3e      	ldr	r3, [pc, #248]	@ (8001ec4 <HAL_RCC_ClockConfig+0x120>)
 8001dcc:	681a      	ldr	r2, [r3, #0]
 8001dce:	f002 0207 	and.w	r2, r2, #7
 8001dd2:	42aa      	cmp	r2, r5
 8001dd4:	d865      	bhi.n	8001ea2 <HAL_RCC_ClockConfig+0xfe>
 8001dd6:	6822      	ldr	r2, [r4, #0]
 8001dd8:	0751      	lsls	r1, r2, #29
 8001dda:	d46b      	bmi.n	8001eb4 <HAL_RCC_ClockConfig+0x110>
 8001ddc:	0713      	lsls	r3, r2, #28
 8001dde:	d507      	bpl.n	8001df0 <HAL_RCC_ClockConfig+0x4c>
 8001de0:	4a39      	ldr	r2, [pc, #228]	@ (8001ec8 <HAL_RCC_ClockConfig+0x124>)
 8001de2:	6921      	ldr	r1, [r4, #16]
 8001de4:	6893      	ldr	r3, [r2, #8]
 8001de6:	f423 4360 	bic.w	r3, r3, #57344	@ 0xe000
 8001dea:	ea43 03c1 	orr.w	r3, r3, r1, lsl #3
 8001dee:	6093      	str	r3, [r2, #8]
 8001df0:	f7ff ffaa 	bl	8001d48 <HAL_RCC_GetSysClockFreq>
 8001df4:	4b34      	ldr	r3, [pc, #208]	@ (8001ec8 <HAL_RCC_ClockConfig+0x124>)
 8001df6:	4a35      	ldr	r2, [pc, #212]	@ (8001ecc <HAL_RCC_ClockConfig+0x128>)
 8001df8:	689b      	ldr	r3, [r3, #8]
 8001dfa:	f3c3 1303 	ubfx	r3, r3, #4, #4
 8001dfe:	5cd3      	ldrb	r3, [r2, r3]
 8001e00:	40d8      	lsrs	r0, r3
 8001e02:	4b33      	ldr	r3, [pc, #204]	@ (8001ed0 <HAL_RCC_ClockConfig+0x12c>)
 8001e04:	6018      	str	r0, [r3, #0]
 8001e06:	4b33      	ldr	r3, [pc, #204]	@ (8001ed4 <HAL_RCC_ClockConfig+0x130>)
 8001e08:	6818      	ldr	r0, [r3, #0]
 8001e0a:	f7ff f8b7 	bl	8000f7c <HAL_InitTick>
 8001e0e:	2000      	movs	r0, #0
 8001e10:	e7ce      	b.n	8001db0 <HAL_RCC_ClockConfig+0xc>
 8001e12:	b2ca      	uxtb	r2, r1
 8001e14:	701a      	strb	r2, [r3, #0]
 8001e16:	681b      	ldr	r3, [r3, #0]
 8001e18:	f003 0307 	and.w	r3, r3, #7
 8001e1c:	428b      	cmp	r3, r1
 8001e1e:	d1c6      	bne.n	8001dae <HAL_RCC_ClockConfig+0xa>
 8001e20:	e7ce      	b.n	8001dc0 <HAL_RCC_ClockConfig+0x1c>
 8001e22:	4b29      	ldr	r3, [pc, #164]	@ (8001ec8 <HAL_RCC_ClockConfig+0x124>)
 8001e24:	f011 0f04 	tst.w	r1, #4
 8001e28:	bf1e      	ittt	ne
 8001e2a:	689a      	ldrne	r2, [r3, #8]
 8001e2c:	f442 52e0 	orrne.w	r2, r2, #7168	@ 0x1c00
 8001e30:	609a      	strne	r2, [r3, #8]
 8001e32:	070e      	lsls	r6, r1, #28
 8001e34:	bf42      	ittt	mi
 8001e36:	689a      	ldrmi	r2, [r3, #8]
 8001e38:	f442 4260 	orrmi.w	r2, r2, #57344	@ 0xe000
 8001e3c:	609a      	strmi	r2, [r3, #8]
 8001e3e:	689a      	ldr	r2, [r3, #8]
 8001e40:	68a0      	ldr	r0, [r4, #8]
 8001e42:	f022 02f0 	bic.w	r2, r2, #240	@ 0xf0
 8001e46:	4302      	orrs	r2, r0
 8001e48:	609a      	str	r2, [r3, #8]
 8001e4a:	e7bc      	b.n	8001dc6 <HAL_RCC_ClockConfig+0x22>
 8001e4c:	6862      	ldr	r2, [r4, #4]
 8001e4e:	4b1e      	ldr	r3, [pc, #120]	@ (8001ec8 <HAL_RCC_ClockConfig+0x124>)
 8001e50:	2a01      	cmp	r2, #1
 8001e52:	d11c      	bne.n	8001e8e <HAL_RCC_ClockConfig+0xea>
 8001e54:	681b      	ldr	r3, [r3, #0]
 8001e56:	f413 3f00 	tst.w	r3, #131072	@ 0x20000
 8001e5a:	d0a8      	beq.n	8001dae <HAL_RCC_ClockConfig+0xa>
 8001e5c:	4e1a      	ldr	r6, [pc, #104]	@ (8001ec8 <HAL_RCC_ClockConfig+0x124>)
 8001e5e:	68b3      	ldr	r3, [r6, #8]
 8001e60:	f023 0303 	bic.w	r3, r3, #3
 8001e64:	4313      	orrs	r3, r2
 8001e66:	60b3      	str	r3, [r6, #8]
 8001e68:	f7ff f8d2 	bl	8001010 <HAL_GetTick>
 8001e6c:	f241 3888 	movw	r8, #5000	@ 0x1388
 8001e70:	4607      	mov	r7, r0
 8001e72:	68b3      	ldr	r3, [r6, #8]
 8001e74:	6862      	ldr	r2, [r4, #4]
 8001e76:	f003 030c 	and.w	r3, r3, #12
 8001e7a:	ebb3 0f82 	cmp.w	r3, r2, lsl #2
 8001e7e:	d0a4      	beq.n	8001dca <HAL_RCC_ClockConfig+0x26>
 8001e80:	f7ff f8c6 	bl	8001010 <HAL_GetTick>
 8001e84:	1bc0      	subs	r0, r0, r7
 8001e86:	4540      	cmp	r0, r8
 8001e88:	d9f3      	bls.n	8001e72 <HAL_RCC_ClockConfig+0xce>
 8001e8a:	2003      	movs	r0, #3
 8001e8c:	e790      	b.n	8001db0 <HAL_RCC_ClockConfig+0xc>
 8001e8e:	1e91      	subs	r1, r2, #2
 8001e90:	2901      	cmp	r1, #1
 8001e92:	681b      	ldr	r3, [r3, #0]
 8001e94:	d802      	bhi.n	8001e9c <HAL_RCC_ClockConfig+0xf8>
 8001e96:	f013 7f00 	tst.w	r3, #33554432	@ 0x2000000
 8001e9a:	e7de      	b.n	8001e5a <HAL_RCC_ClockConfig+0xb6>
 8001e9c:	f013 0f02 	tst.w	r3, #2
 8001ea0:	e7db      	b.n	8001e5a <HAL_RCC_ClockConfig+0xb6>
 8001ea2:	b2ea      	uxtb	r2, r5
 8001ea4:	701a      	strb	r2, [r3, #0]
 8001ea6:	681b      	ldr	r3, [r3, #0]
 8001ea8:	f003 0307 	and.w	r3, r3, #7
 8001eac:	42ab      	cmp	r3, r5
 8001eae:	f47f af7e 	bne.w	8001dae <HAL_RCC_ClockConfig+0xa>
 8001eb2:	e790      	b.n	8001dd6 <HAL_RCC_ClockConfig+0x32>
 8001eb4:	4904      	ldr	r1, [pc, #16]	@ (8001ec8 <HAL_RCC_ClockConfig+0x124>)
 8001eb6:	68e0      	ldr	r0, [r4, #12]
 8001eb8:	688b      	ldr	r3, [r1, #8]
 8001eba:	f423 53e0 	bic.w	r3, r3, #7168	@ 0x1c00
 8001ebe:	4303      	orrs	r3, r0
 8001ec0:	608b      	str	r3, [r1, #8]
 8001ec2:	e78b      	b.n	8001ddc <HAL_RCC_ClockConfig+0x38>
 8001ec4:	40023c00 	.word	0x40023c00
 8001ec8:	40023800 	.word	0x40023800
 8001ecc:	08003310 	.word	0x08003310
 8001ed0:	20000000 	.word	0x20000000
 8001ed4:	20000008 	.word	0x20000008

08001ed8 <HAL_RCC_GetPCLK1Freq>:
 8001ed8:	4b04      	ldr	r3, [pc, #16]	@ (8001eec <HAL_RCC_GetPCLK1Freq+0x14>)
 8001eda:	4a05      	ldr	r2, [pc, #20]	@ (8001ef0 <HAL_RCC_GetPCLK1Freq+0x18>)
 8001edc:	689b      	ldr	r3, [r3, #8]
 8001ede:	f3c3 2382 	ubfx	r3, r3, #10, #3
 8001ee2:	5cd3      	ldrb	r3, [r2, r3]
 8001ee4:	4a03      	ldr	r2, [pc, #12]	@ (8001ef4 <HAL_RCC_GetPCLK1Freq+0x1c>)
 8001ee6:	6810      	ldr	r0, [r2, #0]
 8001ee8:	40d8      	lsrs	r0, r3
 8001eea:	4770      	bx	lr
 8001eec:	40023800 	.word	0x40023800
 8001ef0:	08003308 	.word	0x08003308
 8001ef4:	20000000 	.word	0x20000000

08001ef8 <HAL_RCC_GetPCLK2Freq>:
 8001ef8:	4b04      	ldr	r3, [pc, #16]	@ (8001f0c <HAL_RCC_GetPCLK2Freq+0x14>)
 8001efa:	4a05      	ldr	r2, [pc, #20]	@ (8001f10 <HAL_RCC_GetPCLK2Freq+0x18>)
 8001efc:	689b      	ldr	r3, [r3, #8]
 8001efe:	f3c3 3342 	ubfx	r3, r3, #13, #3
 8001f02:	5cd3      	ldrb	r3, [r2, r3]
 8001f04:	4a03      	ldr	r2, [pc, #12]	@ (8001f14 <HAL_RCC_GetPCLK2Freq+0x1c>)
 8001f06:	6810      	ldr	r0, [r2, #0]
 8001f08:	40d8      	lsrs	r0, r3
 8001f0a:	4770      	bx	lr
 8001f0c:	40023800 	.word	0x40023800
 8001f10:	08003308 	.word	0x08003308
 8001f14:	20000000 	.word	0x20000000

08001f18 <TIM_OC1_SetConfig>:
 8001f18:	6a03      	ldr	r3, [r0, #32]
 8001f1a:	6a02      	ldr	r2, [r0, #32]
 8001f1c:	f022 0201 	bic.w	r2, r2, #1
 8001f20:	b570      	push	{r4, r5, r6, lr}
 8001f22:	6202      	str	r2, [r0, #32]
 8001f24:	6844      	ldr	r4, [r0, #4]
 8001f26:	6982      	ldr	r2, [r0, #24]
 8001f28:	680d      	ldr	r5, [r1, #0]
 8001f2a:	f022 0273 	bic.w	r2, r2, #115	@ 0x73
 8001f2e:	432a      	orrs	r2, r5
 8001f30:	688d      	ldr	r5, [r1, #8]
 8001f32:	f023 0302 	bic.w	r3, r3, #2
 8001f36:	432b      	orrs	r3, r5
 8001f38:	4d0a      	ldr	r5, [pc, #40]	@ (8001f64 <TIM_OC1_SetConfig+0x4c>)
 8001f3a:	42a8      	cmp	r0, r5
 8001f3c:	d10b      	bne.n	8001f56 <TIM_OC1_SetConfig+0x3e>
 8001f3e:	68cd      	ldr	r5, [r1, #12]
 8001f40:	f023 0308 	bic.w	r3, r3, #8
 8001f44:	432b      	orrs	r3, r5
 8001f46:	e9d1 5605 	ldrd	r5, r6, [r1, #20]
 8001f4a:	f424 7440 	bic.w	r4, r4, #768	@ 0x300
 8001f4e:	4335      	orrs	r5, r6
 8001f50:	f023 0304 	bic.w	r3, r3, #4
 8001f54:	432c      	orrs	r4, r5
 8001f56:	6044      	str	r4, [r0, #4]
 8001f58:	6182      	str	r2, [r0, #24]
 8001f5a:	684a      	ldr	r2, [r1, #4]
 8001f5c:	6342      	str	r2, [r0, #52]	@ 0x34
 8001f5e:	6203      	str	r3, [r0, #32]
 8001f60:	bd70      	pop	{r4, r5, r6, pc}
 8001f62:	bf00      	nop
 8001f64:	40010000 	.word	0x40010000

08001f68 <TIM_OC3_SetConfig>:
 8001f68:	6a03      	ldr	r3, [r0, #32]
 8001f6a:	6a02      	ldr	r2, [r0, #32]
 8001f6c:	f422 7280 	bic.w	r2, r2, #256	@ 0x100
 8001f70:	b570      	push	{r4, r5, r6, lr}
 8001f72:	6202      	str	r2, [r0, #32]
 8001f74:	6844      	ldr	r4, [r0, #4]
 8001f76:	69c2      	ldr	r2, [r0, #28]
 8001f78:	680d      	ldr	r5, [r1, #0]
 8001f7a:	f022 0273 	bic.w	r2, r2, #115	@ 0x73
 8001f7e:	432a      	orrs	r2, r5
 8001f80:	688d      	ldr	r5, [r1, #8]
 8001f82:	f423 7300 	bic.w	r3, r3, #512	@ 0x200
 8001f86:	ea43 2305 	orr.w	r3, r3, r5, lsl #8
 8001f8a:	4d0b      	ldr	r5, [pc, #44]	@ (8001fb8 <TIM_OC3_SetConfig+0x50>)
 8001f8c:	42a8      	cmp	r0, r5
 8001f8e:	d10d      	bne.n	8001fac <TIM_OC3_SetConfig+0x44>
 8001f90:	68cd      	ldr	r5, [r1, #12]
 8001f92:	f423 6300 	bic.w	r3, r3, #2048	@ 0x800
 8001f96:	ea43 2305 	orr.w	r3, r3, r5, lsl #8
 8001f9a:	e9d1 5605 	ldrd	r5, r6, [r1, #20]
 8001f9e:	f424 5440 	bic.w	r4, r4, #12288	@ 0x3000
 8001fa2:	4335      	orrs	r5, r6
 8001fa4:	f423 6380 	bic.w	r3, r3, #1024	@ 0x400
 8001fa8:	ea44 1405 	orr.w	r4, r4, r5, lsl #4
 8001fac:	6044      	str	r4, [r0, #4]
 8001fae:	61c2      	str	r2, [r0, #28]
 8001fb0:	684a      	ldr	r2, [r1, #4]
 8001fb2:	63c2      	str	r2, [r0, #60]	@ 0x3c
 8001fb4:	6203      	str	r3, [r0, #32]
 8001fb6:	bd70      	pop	{r4, r5, r6, pc}
 8001fb8:	40010000 	.word	0x40010000

08001fbc <TIM_OC4_SetConfig>:
 8001fbc:	6a03      	ldr	r3, [r0, #32]
 8001fbe:	6a02      	ldr	r2, [r0, #32]
 8001fc0:	f422 5280 	bic.w	r2, r2, #4096	@ 0x1000
 8001fc4:	b530      	push	{r4, r5, lr}
 8001fc6:	6202      	str	r2, [r0, #32]
 8001fc8:	6844      	ldr	r4, [r0, #4]
 8001fca:	69c2      	ldr	r2, [r0, #28]
 8001fcc:	680d      	ldr	r5, [r1, #0]
 8001fce:	f422 42e6 	bic.w	r2, r2, #29440	@ 0x7300
 8001fd2:	ea42 2205 	orr.w	r2, r2, r5, lsl #8
 8001fd6:	688d      	ldr	r5, [r1, #8]
 8001fd8:	f423 5300 	bic.w	r3, r3, #8192	@ 0x2000
 8001fdc:	ea43 3305 	orr.w	r3, r3, r5, lsl #12
 8001fe0:	4d06      	ldr	r5, [pc, #24]	@ (8001ffc <TIM_OC4_SetConfig+0x40>)
 8001fe2:	42a8      	cmp	r0, r5
 8001fe4:	bf02      	ittt	eq
 8001fe6:	694d      	ldreq	r5, [r1, #20]
 8001fe8:	f424 4480 	biceq.w	r4, r4, #16384	@ 0x4000
 8001fec:	ea44 1485 	orreq.w	r4, r4, r5, lsl #6
 8001ff0:	6044      	str	r4, [r0, #4]
 8001ff2:	61c2      	str	r2, [r0, #28]
 8001ff4:	684a      	ldr	r2, [r1, #4]
 8001ff6:	6402      	str	r2, [r0, #64]	@ 0x40
 8001ff8:	6203      	str	r3, [r0, #32]
 8001ffa:	bd30      	pop	{r4, r5, pc}
 8001ffc:	40010000 	.word	0x40010000

08002000 <TIM_Base_SetConfig>:
 8002000:	4a1d      	ldr	r2, [pc, #116]	@ (8002078 <TIM_Base_SetConfig+0x78>)
 8002002:	6803      	ldr	r3, [r0, #0]
 8002004:	4290      	cmp	r0, r2
 8002006:	d00e      	beq.n	8002026 <TIM_Base_SetConfig+0x26>
 8002008:	f1b0 4f80 	cmp.w	r0, #1073741824	@ 0x40000000
 800200c:	d00b      	beq.n	8002026 <TIM_Base_SetConfig+0x26>
 800200e:	f5a2 427c 	sub.w	r2, r2, #64512	@ 0xfc00
 8002012:	4290      	cmp	r0, r2
 8002014:	d007      	beq.n	8002026 <TIM_Base_SetConfig+0x26>
 8002016:	f502 6280 	add.w	r2, r2, #1024	@ 0x400
 800201a:	4290      	cmp	r0, r2
 800201c:	d003      	beq.n	8002026 <TIM_Base_SetConfig+0x26>
 800201e:	f502 6280 	add.w	r2, r2, #1024	@ 0x400
 8002022:	4290      	cmp	r0, r2
 8002024:	d108      	bne.n	8002038 <TIM_Base_SetConfig+0x38>
 8002026:	684a      	ldr	r2, [r1, #4]
 8002028:	f023 0370 	bic.w	r3, r3, #112	@ 0x70
 800202c:	4313      	orrs	r3, r2
 800202e:	68ca      	ldr	r2, [r1, #12]
 8002030:	f423 7340 	bic.w	r3, r3, #768	@ 0x300
 8002034:	4313      	orrs	r3, r2
 8002036:	e00a      	b.n	800204e <TIM_Base_SetConfig+0x4e>
 8002038:	4a10      	ldr	r2, [pc, #64]	@ (800207c <TIM_Base_SetConfig+0x7c>)
 800203a:	4290      	cmp	r0, r2
 800203c:	d0f7      	beq.n	800202e <TIM_Base_SetConfig+0x2e>
 800203e:	f502 6280 	add.w	r2, r2, #1024	@ 0x400
 8002042:	4290      	cmp	r0, r2
 8002044:	d0f3      	beq.n	800202e <TIM_Base_SetConfig+0x2e>
 8002046:	f502 6280 	add.w	r2, r2, #1024	@ 0x400
 800204a:	4290      	cmp	r0, r2
 800204c:	d0ef      	beq.n	800202e <TIM_Base_SetConfig+0x2e>
 800204e:	694a      	ldr	r2, [r1, #20]
 8002050:	f023 0380 	bic.w	r3, r3, #128	@ 0x80
 8002054:	4313      	orrs	r3, r2
 8002056:	688a      	ldr	r2, [r1, #8]
 8002058:	62c2      	str	r2, [r0, #44]	@ 0x2c
 800205a:	680a      	ldr	r2, [r1, #0]
 800205c:	6282      	str	r2, [r0, #40]	@ 0x28
 800205e:	4a06      	ldr	r2, [pc, #24]	@ (8002078 <TIM_Base_SetConfig+0x78>)
 8002060:	4290      	cmp	r0, r2
 8002062:	bf04      	itt	eq
 8002064:	690a      	ldreq	r2, [r1, #16]
 8002066:	6302      	streq	r2, [r0, #48]	@ 0x30
 8002068:	6802      	ldr	r2, [r0, #0]
 800206a:	f042 0204 	orr.w	r2, r2, #4
 800206e:	6002      	str	r2, [r0, #0]
 8002070:	2201      	movs	r2, #1
 8002072:	6142      	str	r2, [r0, #20]
 8002074:	6003      	str	r3, [r0, #0]
 8002076:	4770      	bx	lr
 8002078:	40010000 	.word	0x40010000
 800207c:	40014000 	.word	0x40014000

08002080 <HAL_TIM_PWM_Init>:
 8002080:	b510      	push	{r4, lr}
 8002082:	4604      	mov	r4, r0
 8002084:	b330      	cbz	r0, 80020d4 <HAL_TIM_PWM_Init+0x54>
 8002086:	f890 303d 	ldrb.w	r3, [r0, #61]	@ 0x3d
 800208a:	f003 02ff 	and.w	r2, r3, #255	@ 0xff
 800208e:	b91b      	cbnz	r3, 8002098 <HAL_TIM_PWM_Init+0x18>
 8002090:	f880 203c 	strb.w	r2, [r0, #60]	@ 0x3c
 8002094:	f7fe fd52 	bl	8000b3c <HAL_TIM_PWM_MspInit>
 8002098:	2302      	movs	r3, #2
 800209a:	6820      	ldr	r0, [r4, #0]
 800209c:	f884 303d 	strb.w	r3, [r4, #61]	@ 0x3d
 80020a0:	1d21      	adds	r1, r4, #4
 80020a2:	f7ff ffad 	bl	8002000 <TIM_Base_SetConfig>
 80020a6:	2301      	movs	r3, #1
 80020a8:	f884 3046 	strb.w	r3, [r4, #70]	@ 0x46
 80020ac:	2000      	movs	r0, #0
 80020ae:	f884 303e 	strb.w	r3, [r4, #62]	@ 0x3e
 80020b2:	f884 303f 	strb.w	r3, [r4, #63]	@ 0x3f
 80020b6:	f884 3040 	strb.w	r3, [r4, #64]	@ 0x40
 80020ba:	f884 3041 	strb.w	r3, [r4, #65]	@ 0x41
 80020be:	f884 3042 	strb.w	r3, [r4, #66]	@ 0x42
 80020c2:	f884 3043 	strb.w	r3, [r4, #67]	@ 0x43
 80020c6:	f884 3044 	strb.w	r3, [r4, #68]	@ 0x44
 80020ca:	f884 3045 	strb.w	r3, [r4, #69]	@ 0x45
 80020ce:	f884 303d 	strb.w	r3, [r4, #61]	@ 0x3d
 80020d2:	bd10      	pop	{r4, pc}
 80020d4:	2001      	movs	r0, #1
 80020d6:	e7fc      	b.n	80020d2 <HAL_TIM_PWM_Init+0x52>

080020d8 <TIM_OC2_SetConfig>:
 80020d8:	6a03      	ldr	r3, [r0, #32]
 80020da:	6a02      	ldr	r2, [r0, #32]
 80020dc:	f022 0210 	bic.w	r2, r2, #16
 80020e0:	b570      	push	{r4, r5, r6, lr}
 80020e2:	6202      	str	r2, [r0, #32]
 80020e4:	6844      	ldr	r4, [r0, #4]
 80020e6:	6982      	ldr	r2, [r0, #24]
 80020e8:	680d      	ldr	r5, [r1, #0]
 80020ea:	f422 42e6 	bic.w	r2, r2, #29440	@ 0x7300
 80020ee:	ea42 2205 	orr.w	r2, r2, r5, lsl #8
 80020f2:	688d      	ldr	r5, [r1, #8]
 80020f4:	f023 0320 	bic.w	r3, r3, #32
 80020f8:	ea43 1305 	orr.w	r3, r3, r5, lsl #4
 80020fc:	4d0b      	ldr	r5, [pc, #44]	@ (800212c <TIM_OC2_SetConfig+0x54>)
 80020fe:	42a8      	cmp	r0, r5
 8002100:	d10d      	bne.n	800211e <TIM_OC2_SetConfig+0x46>
 8002102:	68cd      	ldr	r5, [r1, #12]
 8002104:	f023 0380 	bic.w	r3, r3, #128	@ 0x80
 8002108:	ea43 1305 	orr.w	r3, r3, r5, lsl #4
 800210c:	e9d1 5605 	ldrd	r5, r6, [r1, #20]
 8002110:	f424 6440 	bic.w	r4, r4, #3072	@ 0xc00
 8002114:	4335      	orrs	r5, r6
 8002116:	f023 0340 	bic.w	r3, r3, #64	@ 0x40
 800211a:	ea44 0485 	orr.w	r4, r4, r5, lsl #2
 800211e:	6044      	str	r4, [r0, #4]
 8002120:	6182      	str	r2, [r0, #24]
 8002122:	684a      	ldr	r2, [r1, #4]
 8002124:	6382      	str	r2, [r0, #56]	@ 0x38
 8002126:	6203      	str	r3, [r0, #32]
 8002128:	bd70      	pop	{r4, r5, r6, pc}
 800212a:	bf00      	nop
 800212c:	40010000 	.word	0x40010000

08002130 <HAL_TIM_PWM_ConfigChannel>:
 8002130:	b538      	push	{r3, r4, r5, lr}
 8002132:	f890 303c 	ldrb.w	r3, [r0, #60]	@ 0x3c
 8002136:	2b01      	cmp	r3, #1
 8002138:	4604      	mov	r4, r0
 800213a:	d04f      	beq.n	80021dc <HAL_TIM_PWM_ConfigChannel+0xac>
 800213c:	2001      	movs	r0, #1
 800213e:	2a08      	cmp	r2, #8
 8002140:	f884 003c 	strb.w	r0, [r4, #60]	@ 0x3c
 8002144:	d03a      	beq.n	80021bc <HAL_TIM_PWM_ConfigChannel+0x8c>
 8002146:	d806      	bhi.n	8002156 <HAL_TIM_PWM_ConfigChannel+0x26>
 8002148:	b1ba      	cbz	r2, 800217a <HAL_TIM_PWM_ConfigChannel+0x4a>
 800214a:	2a04      	cmp	r2, #4
 800214c:	d026      	beq.n	800219c <HAL_TIM_PWM_ConfigChannel+0x6c>
 800214e:	2300      	movs	r3, #0
 8002150:	f884 303c 	strb.w	r3, [r4, #60]	@ 0x3c
 8002154:	bd38      	pop	{r3, r4, r5, pc}
 8002156:	2a0c      	cmp	r2, #12
 8002158:	d1f9      	bne.n	800214e <HAL_TIM_PWM_ConfigChannel+0x1e>
 800215a:	6820      	ldr	r0, [r4, #0]
 800215c:	f7ff ff2e 	bl	8001fbc <TIM_OC4_SetConfig>
 8002160:	69c3      	ldr	r3, [r0, #28]
 8002162:	690a      	ldr	r2, [r1, #16]
 8002164:	f443 6300 	orr.w	r3, r3, #2048	@ 0x800
 8002168:	61c3      	str	r3, [r0, #28]
 800216a:	69c3      	ldr	r3, [r0, #28]
 800216c:	f423 6380 	bic.w	r3, r3, #1024	@ 0x400
 8002170:	61c3      	str	r3, [r0, #28]
 8002172:	69c3      	ldr	r3, [r0, #28]
 8002174:	ea43 2302 	orr.w	r3, r3, r2, lsl #8
 8002178:	e02e      	b.n	80021d8 <HAL_TIM_PWM_ConfigChannel+0xa8>
 800217a:	6820      	ldr	r0, [r4, #0]
 800217c:	f7ff fecc 	bl	8001f18 <TIM_OC1_SetConfig>
 8002180:	6983      	ldr	r3, [r0, #24]
 8002182:	690a      	ldr	r2, [r1, #16]
 8002184:	f043 0308 	orr.w	r3, r3, #8
 8002188:	6183      	str	r3, [r0, #24]
 800218a:	6983      	ldr	r3, [r0, #24]
 800218c:	f023 0304 	bic.w	r3, r3, #4
 8002190:	6183      	str	r3, [r0, #24]
 8002192:	6983      	ldr	r3, [r0, #24]
 8002194:	4313      	orrs	r3, r2
 8002196:	6183      	str	r3, [r0, #24]
 8002198:	2000      	movs	r0, #0
 800219a:	e7d8      	b.n	800214e <HAL_TIM_PWM_ConfigChannel+0x1e>
 800219c:	6820      	ldr	r0, [r4, #0]
 800219e:	f7ff ff9b 	bl	80020d8 <TIM_OC2_SetConfig>
 80021a2:	6983      	ldr	r3, [r0, #24]
 80021a4:	690a      	ldr	r2, [r1, #16]
 80021a6:	f443 6300 	orr.w	r3, r3, #2048	@ 0x800
 80021aa:	6183      	str	r3, [r0, #24]
 80021ac:	6983      	ldr	r3, [r0, #24]
 80021ae:	f423 6380 	bic.w	r3, r3, #1024	@ 0x400
 80021b2:	6183      	str	r3, [r0, #24]
 80021b4:	6983      	ldr	r3, [r0, #24]
 80021b6:	ea43 2302 	orr.w	r3, r3, r2, lsl #8
 80021ba:	e7ec      	b.n	8002196 <HAL_TIM_PWM_ConfigChannel+0x66>
 80021bc:	6820      	ldr	r0, [r4, #0]
 80021be:	f7ff fed3 	bl	8001f68 <TIM_OC3_SetConfig>
 80021c2:	69c3      	ldr	r3, [r0, #28]
 80021c4:	690a      	ldr	r2, [r1, #16]
 80021c6:	f043 0308 	orr.w	r3, r3, #8
 80021ca:	61c3      	str	r3, [r0, #28]
 80021cc:	69c3      	ldr	r3, [r0, #28]
 80021ce:	f023 0304 	bic.w	r3, r3, #4
 80021d2:	61c3      	str	r3, [r0, #28]
 80021d4:	69c3      	ldr	r3, [r0, #28]
 80021d6:	4313      	orrs	r3, r2
 80021d8:	61c3      	str	r3, [r0, #28]
 80021da:	e7dd      	b.n	8002198 <HAL_TIM_PWM_ConfigChannel+0x68>
 80021dc:	2002      	movs	r0, #2
 80021de:	e7b9      	b.n	8002154 <HAL_TIM_PWM_ConfigChannel+0x24>

080021e0 <HAL_TIMEx_MasterConfigSynchronization>:
 80021e0:	b530      	push	{r4, r5, lr}
 80021e2:	f890 303c 	ldrb.w	r3, [r0, #60]	@ 0x3c
 80021e6:	2b01      	cmp	r3, #1
 80021e8:	4602      	mov	r2, r0
 80021ea:	f04f 0002 	mov.w	r0, #2
 80021ee:	d02a      	beq.n	8002246 <HAL_TIMEx_MasterConfigSynchronization+0x66>
 80021f0:	6813      	ldr	r3, [r2, #0]
 80021f2:	f882 003d 	strb.w	r0, [r2, #61]	@ 0x3d
 80021f6:	685c      	ldr	r4, [r3, #4]
 80021f8:	680d      	ldr	r5, [r1, #0]
 80021fa:	6898      	ldr	r0, [r3, #8]
 80021fc:	f024 0470 	bic.w	r4, r4, #112	@ 0x70
 8002200:	432c      	orrs	r4, r5
 8002202:	605c      	str	r4, [r3, #4]
 8002204:	4c10      	ldr	r4, [pc, #64]	@ (8002248 <HAL_TIMEx_MasterConfigSynchronization+0x68>)
 8002206:	42a3      	cmp	r3, r4
 8002208:	d012      	beq.n	8002230 <HAL_TIMEx_MasterConfigSynchronization+0x50>
 800220a:	f1b3 4f80 	cmp.w	r3, #1073741824	@ 0x40000000
 800220e:	d00f      	beq.n	8002230 <HAL_TIMEx_MasterConfigSynchronization+0x50>
 8002210:	f5a4 447c 	sub.w	r4, r4, #64512	@ 0xfc00
 8002214:	42a3      	cmp	r3, r4
 8002216:	d00b      	beq.n	8002230 <HAL_TIMEx_MasterConfigSynchronization+0x50>
 8002218:	f504 6480 	add.w	r4, r4, #1024	@ 0x400
 800221c:	42a3      	cmp	r3, r4
 800221e:	d007      	beq.n	8002230 <HAL_TIMEx_MasterConfigSynchronization+0x50>
 8002220:	f504 6480 	add.w	r4, r4, #1024	@ 0x400
 8002224:	42a3      	cmp	r3, r4
 8002226:	d003      	beq.n	8002230 <HAL_TIMEx_MasterConfigSynchronization+0x50>
 8002228:	f504 349a 	add.w	r4, r4, #78848	@ 0x13400
 800222c:	42a3      	cmp	r3, r4
 800222e:	d104      	bne.n	800223a <HAL_TIMEx_MasterConfigSynchronization+0x5a>
 8002230:	6849      	ldr	r1, [r1, #4]
 8002232:	f020 0080 	bic.w	r0, r0, #128	@ 0x80
 8002236:	4301      	orrs	r1, r0
 8002238:	6099      	str	r1, [r3, #8]
 800223a:	2301      	movs	r3, #1
 800223c:	2000      	movs	r0, #0
 800223e:	f882 303d 	strb.w	r3, [r2, #61]	@ 0x3d
 8002242:	f882 003c 	strb.w	r0, [r2, #60]	@ 0x3c
 8002246:	bd30      	pop	{r4, r5, pc}
 8002248:	40010000 	.word	0x40010000

0800224c <HAL_TIMEx_ConfigBreakDeadTime>:
 800224c:	f890 303c 	ldrb.w	r3, [r0, #60]	@ 0x3c
 8002250:	2b01      	cmp	r3, #1
 8002252:	4602      	mov	r2, r0
 8002254:	d01e      	beq.n	8002294 <HAL_TIMEx_ConfigBreakDeadTime+0x48>
 8002256:	68cb      	ldr	r3, [r1, #12]
 8002258:	6888      	ldr	r0, [r1, #8]
 800225a:	f423 7340 	bic.w	r3, r3, #768	@ 0x300
 800225e:	4303      	orrs	r3, r0
 8002260:	6848      	ldr	r0, [r1, #4]
 8002262:	f423 6380 	bic.w	r3, r3, #1024	@ 0x400
 8002266:	4303      	orrs	r3, r0
 8002268:	6808      	ldr	r0, [r1, #0]
 800226a:	f423 6300 	bic.w	r3, r3, #2048	@ 0x800
 800226e:	4303      	orrs	r3, r0
 8002270:	6908      	ldr	r0, [r1, #16]
 8002272:	f423 5380 	bic.w	r3, r3, #4096	@ 0x1000
 8002276:	4303      	orrs	r3, r0
 8002278:	6948      	ldr	r0, [r1, #20]
 800227a:	69c9      	ldr	r1, [r1, #28]
 800227c:	f423 5300 	bic.w	r3, r3, #8192	@ 0x2000
 8002280:	4303      	orrs	r3, r0
 8002282:	f423 4380 	bic.w	r3, r3, #16384	@ 0x4000
 8002286:	430b      	orrs	r3, r1
 8002288:	6811      	ldr	r1, [r2, #0]
 800228a:	2000      	movs	r0, #0
 800228c:	644b      	str	r3, [r1, #68]	@ 0x44
 800228e:	f882 003c 	strb.w	r0, [r2, #60]	@ 0x3c
 8002292:	4770      	bx	lr
 8002294:	2002      	movs	r0, #2
 8002296:	4770      	bx	lr

08002298 <UART_EndRxTransfer>:
 8002298:	6802      	ldr	r2, [r0, #0]
 800229a:	f102 030c 	add.w	r3, r2, #12
 800229e:	e853 3f00 	ldrex	r3, [r3]
 80022a2:	f423 7390 	bic.w	r3, r3, #288	@ 0x120
 80022a6:	320c      	adds	r2, #12
 80022a8:	e842 3100 	strex	r1, r3, [r2]
 80022ac:	6802      	ldr	r2, [r0, #0]
 80022ae:	2900      	cmp	r1, #0
 80022b0:	d1f2      	bne.n	8002298 <UART_EndRxTransfer>
 80022b2:	f102 0314 	add.w	r3, r2, #20
 80022b6:	e853 3f00 	ldrex	r3, [r3]
 80022ba:	f023 0301 	bic.w	r3, r3, #1
 80022be:	f102 0c14 	add.w	ip, r2, #20
 80022c2:	e84c 3100 	strex	r1, r3, [ip]
 80022c6:	2900      	cmp	r1, #0
 80022c8:	d1f3      	bne.n	80022b2 <UART_EndRxTransfer+0x1a>
 80022ca:	6b03      	ldr	r3, [r0, #48]	@ 0x30
 80022cc:	2b01      	cmp	r3, #1
 80022ce:	d10b      	bne.n	80022e8 <UART_EndRxTransfer+0x50>
 80022d0:	f102 030c 	add.w	r3, r2, #12
 80022d4:	e853 3f00 	ldrex	r3, [r3]
 80022d8:	f023 0310 	bic.w	r3, r3, #16
 80022dc:	f102 0c0c 	add.w	ip, r2, #12
 80022e0:	e84c 3100 	strex	r1, r3, [ip]
 80022e4:	2900      	cmp	r1, #0
 80022e6:	d1f3      	bne.n	80022d0 <UART_EndRxTransfer+0x38>
 80022e8:	2320      	movs	r3, #32
 80022ea:	f880 3042 	strb.w	r3, [r0, #66]	@ 0x42
 80022ee:	2300      	movs	r3, #0
 80022f0:	6303      	str	r3, [r0, #48]	@ 0x30
 80022f2:	4770      	bx	lr

080022f4 <UART_SetConfig>:
 80022f4:	6802      	ldr	r2, [r0, #0]
 80022f6:	68c1      	ldr	r1, [r0, #12]
 80022f8:	b538      	push	{r3, r4, r5, lr}
 80022fa:	6913      	ldr	r3, [r2, #16]
 80022fc:	f423 5340 	bic.w	r3, r3, #12288	@ 0x3000
 8002300:	430b      	orrs	r3, r1
 8002302:	6113      	str	r3, [r2, #16]
 8002304:	4605      	mov	r5, r0
 8002306:	6883      	ldr	r3, [r0, #8]
 8002308:	6900      	ldr	r0, [r0, #16]
 800230a:	68d1      	ldr	r1, [r2, #12]
 800230c:	4303      	orrs	r3, r0
 800230e:	6968      	ldr	r0, [r5, #20]
 8002310:	4303      	orrs	r3, r0
 8002312:	69e8      	ldr	r0, [r5, #28]
 8002314:	f421 4116 	bic.w	r1, r1, #38400	@ 0x9600
 8002318:	f021 010c 	bic.w	r1, r1, #12
 800231c:	4303      	orrs	r3, r0
 800231e:	430b      	orrs	r3, r1
 8002320:	60d3      	str	r3, [r2, #12]
 8002322:	6953      	ldr	r3, [r2, #20]
 8002324:	69a9      	ldr	r1, [r5, #24]
 8002326:	f423 7340 	bic.w	r3, r3, #768	@ 0x300
 800232a:	430b      	orrs	r3, r1
 800232c:	6153      	str	r3, [r2, #20]
 800232e:	4b1f      	ldr	r3, [pc, #124]	@ (80023ac <UART_SetConfig+0xb8>)
 8002330:	429a      	cmp	r2, r3
 8002332:	d003      	beq.n	800233c <UART_SetConfig+0x48>
 8002334:	f503 6380 	add.w	r3, r3, #1024	@ 0x400
 8002338:	429a      	cmp	r2, r3
 800233a:	d124      	bne.n	8002386 <UART_SetConfig+0x92>
 800233c:	f7ff fddc 	bl	8001ef8 <HAL_RCC_GetPCLK2Freq>
 8002340:	69ea      	ldr	r2, [r5, #28]
 8002342:	2119      	movs	r1, #25
 8002344:	f5b2 4f00 	cmp.w	r2, #32768	@ 0x8000
 8002348:	e9d5 4300 	ldrd	r4, r3, [r5]
 800234c:	fba0 0101 	umull	r0, r1, r0, r1
 8002350:	d11c      	bne.n	800238c <UART_SetConfig+0x98>
 8002352:	18da      	adds	r2, r3, r3
 8002354:	f04f 0500 	mov.w	r5, #0
 8002358:	eb45 0305 	adc.w	r3, r5, r5
 800235c:	f7fd ff98 	bl	8000290 <__aeabi_uldivmod>
 8002360:	2264      	movs	r2, #100	@ 0x64
 8002362:	fbb0 f1f2 	udiv	r1, r0, r2
 8002366:	fb02 0311 	mls	r3, r2, r1, r0
 800236a:	00db      	lsls	r3, r3, #3
 800236c:	3332      	adds	r3, #50	@ 0x32
 800236e:	fbb3 f3f2 	udiv	r3, r3, r2
 8002372:	f003 0207 	and.w	r2, r3, #7
 8002376:	005b      	lsls	r3, r3, #1
 8002378:	eb02 1201 	add.w	r2, r2, r1, lsl #4
 800237c:	f403 73f8 	and.w	r3, r3, #496	@ 0x1f0
 8002380:	4413      	add	r3, r2
 8002382:	60a3      	str	r3, [r4, #8]
 8002384:	bd38      	pop	{r3, r4, r5, pc}
 8002386:	f7ff fda7 	bl	8001ed8 <HAL_RCC_GetPCLK1Freq>
 800238a:	e7d9      	b.n	8002340 <UART_SetConfig+0x4c>
 800238c:	009a      	lsls	r2, r3, #2
 800238e:	0f9b      	lsrs	r3, r3, #30
 8002390:	f7fd ff7e 	bl	8000290 <__aeabi_uldivmod>
 8002394:	2264      	movs	r2, #100	@ 0x64
 8002396:	fbb0 f1f2 	udiv	r1, r0, r2
 800239a:	fb02 0311 	mls	r3, r2, r1, r0
 800239e:	011b      	lsls	r3, r3, #4
 80023a0:	3332      	adds	r3, #50	@ 0x32
 80023a2:	fbb3 f3f2 	udiv	r3, r3, r2
 80023a6:	eb03 1301 	add.w	r3, r3, r1, lsl #4
 80023aa:	e7ea      	b.n	8002382 <UART_SetConfig+0x8e>
 80023ac:	40011000 	.word	0x40011000

080023b0 <UART_WaitOnFlagUntilTimeout.constprop.0>:
 80023b0:	b5f7      	push	{r0, r1, r2, r4, r5, r6, r7, lr}
 80023b2:	4605      	mov	r5, r0
 80023b4:	460c      	mov	r4, r1
 80023b6:	4617      	mov	r7, r2
 80023b8:	461e      	mov	r6, r3
 80023ba:	682a      	ldr	r2, [r5, #0]
 80023bc:	6813      	ldr	r3, [r2, #0]
 80023be:	ea34 0303 	bics.w	r3, r4, r3
 80023c2:	d101      	bne.n	80023c8 <UART_WaitOnFlagUntilTimeout.constprop.0+0x18>
 80023c4:	2000      	movs	r0, #0
 80023c6:	e021      	b.n	800240c <UART_WaitOnFlagUntilTimeout.constprop.0+0x5c>
 80023c8:	1c70      	adds	r0, r6, #1
 80023ca:	d0f7      	beq.n	80023bc <UART_WaitOnFlagUntilTimeout.constprop.0+0xc>
 80023cc:	f7fe fe20 	bl	8001010 <HAL_GetTick>
 80023d0:	1bc0      	subs	r0, r0, r7
 80023d2:	4286      	cmp	r6, r0
 80023d4:	d31c      	bcc.n	8002410 <UART_WaitOnFlagUntilTimeout.constprop.0+0x60>
 80023d6:	b1de      	cbz	r6, 8002410 <UART_WaitOnFlagUntilTimeout.constprop.0+0x60>
 80023d8:	682b      	ldr	r3, [r5, #0]
 80023da:	68da      	ldr	r2, [r3, #12]
 80023dc:	0751      	lsls	r1, r2, #29
 80023de:	d5ec      	bpl.n	80023ba <UART_WaitOnFlagUntilTimeout.constprop.0+0xa>
 80023e0:	2c80      	cmp	r4, #128	@ 0x80
 80023e2:	d0ea      	beq.n	80023ba <UART_WaitOnFlagUntilTimeout.constprop.0+0xa>
 80023e4:	2c40      	cmp	r4, #64	@ 0x40
 80023e6:	d0e8      	beq.n	80023ba <UART_WaitOnFlagUntilTimeout.constprop.0+0xa>
 80023e8:	681a      	ldr	r2, [r3, #0]
 80023ea:	0712      	lsls	r2, r2, #28
 80023ec:	d5e5      	bpl.n	80023ba <UART_WaitOnFlagUntilTimeout.constprop.0+0xa>
 80023ee:	2400      	movs	r4, #0
 80023f0:	9401      	str	r4, [sp, #4]
 80023f2:	681a      	ldr	r2, [r3, #0]
 80023f4:	9201      	str	r2, [sp, #4]
 80023f6:	685b      	ldr	r3, [r3, #4]
 80023f8:	9301      	str	r3, [sp, #4]
 80023fa:	4628      	mov	r0, r5
 80023fc:	9b01      	ldr	r3, [sp, #4]
 80023fe:	f7ff ff4b 	bl	8002298 <UART_EndRxTransfer>
 8002402:	2308      	movs	r3, #8
 8002404:	646b      	str	r3, [r5, #68]	@ 0x44
 8002406:	f885 4040 	strb.w	r4, [r5, #64]	@ 0x40
 800240a:	2001      	movs	r0, #1
 800240c:	b003      	add	sp, #12
 800240e:	bdf0      	pop	{r4, r5, r6, r7, pc}
 8002410:	2003      	movs	r0, #3
 8002412:	e7fb      	b.n	800240c <UART_WaitOnFlagUntilTimeout.constprop.0+0x5c>

08002414 <HAL_UART_Init>:
 8002414:	b510      	push	{r4, lr}
 8002416:	4604      	mov	r4, r0
 8002418:	b348      	cbz	r0, 800246e <HAL_UART_Init+0x5a>
 800241a:	f890 3041 	ldrb.w	r3, [r0, #65]	@ 0x41
 800241e:	f003 02ff 	and.w	r2, r3, #255	@ 0xff
 8002422:	b91b      	cbnz	r3, 800242c <HAL_UART_Init+0x18>
 8002424:	f880 2040 	strb.w	r2, [r0, #64]	@ 0x40
 8002428:	f7fe fd0e 	bl	8000e48 <HAL_UART_MspInit>
 800242c:	6822      	ldr	r2, [r4, #0]
 800242e:	2324      	movs	r3, #36	@ 0x24
 8002430:	f884 3041 	strb.w	r3, [r4, #65]	@ 0x41
 8002434:	68d3      	ldr	r3, [r2, #12]
 8002436:	f423 5300 	bic.w	r3, r3, #8192	@ 0x2000
 800243a:	60d3      	str	r3, [r2, #12]
 800243c:	4620      	mov	r0, r4
 800243e:	f7ff ff59 	bl	80022f4 <UART_SetConfig>
 8002442:	6823      	ldr	r3, [r4, #0]
 8002444:	691a      	ldr	r2, [r3, #16]
 8002446:	f422 4290 	bic.w	r2, r2, #18432	@ 0x4800
 800244a:	611a      	str	r2, [r3, #16]
 800244c:	695a      	ldr	r2, [r3, #20]
 800244e:	f022 022a 	bic.w	r2, r2, #42	@ 0x2a
 8002452:	615a      	str	r2, [r3, #20]
 8002454:	68da      	ldr	r2, [r3, #12]
 8002456:	f442 5200 	orr.w	r2, r2, #8192	@ 0x2000
 800245a:	60da      	str	r2, [r3, #12]
 800245c:	2000      	movs	r0, #0
 800245e:	2320      	movs	r3, #32
 8002460:	6460      	str	r0, [r4, #68]	@ 0x44
 8002462:	f884 3041 	strb.w	r3, [r4, #65]	@ 0x41
 8002466:	f884 3042 	strb.w	r3, [r4, #66]	@ 0x42
 800246a:	6360      	str	r0, [r4, #52]	@ 0x34
 800246c:	bd10      	pop	{r4, pc}
 800246e:	2001      	movs	r0, #1
 8002470:	e7fc      	b.n	800246c <HAL_UART_Init+0x58>

08002472 <HAL_UART_Transmit>:
 8002472:	e92d 43f8 	stmdb	sp!, {r3, r4, r5, r6, r7, r8, r9, lr}
 8002476:	4698      	mov	r8, r3
 8002478:	f890 3041 	ldrb.w	r3, [r0, #65]	@ 0x41
 800247c:	2b20      	cmp	r3, #32
 800247e:	4604      	mov	r4, r0
 8002480:	460e      	mov	r6, r1
 8002482:	4617      	mov	r7, r2
 8002484:	d13f      	bne.n	8002506 <HAL_UART_Transmit+0x94>
 8002486:	2900      	cmp	r1, #0
 8002488:	d03f      	beq.n	800250a <HAL_UART_Transmit+0x98>
 800248a:	2a00      	cmp	r2, #0
 800248c:	d03d      	beq.n	800250a <HAL_UART_Transmit+0x98>
 800248e:	2321      	movs	r3, #33	@ 0x21
 8002490:	2500      	movs	r5, #0
 8002492:	6445      	str	r5, [r0, #68]	@ 0x44
 8002494:	f880 3041 	strb.w	r3, [r0, #65]	@ 0x41
 8002498:	f7fe fdba 	bl	8001010 <HAL_GetTick>
 800249c:	68a3      	ldr	r3, [r4, #8]
 800249e:	84a7      	strh	r7, [r4, #36]	@ 0x24
 80024a0:	f5b3 5f80 	cmp.w	r3, #4096	@ 0x1000
 80024a4:	4681      	mov	r9, r0
 80024a6:	84e7      	strh	r7, [r4, #38]	@ 0x26
 80024a8:	d103      	bne.n	80024b2 <HAL_UART_Transmit+0x40>
 80024aa:	6923      	ldr	r3, [r4, #16]
 80024ac:	b90b      	cbnz	r3, 80024b2 <HAL_UART_Transmit+0x40>
 80024ae:	4635      	mov	r5, r6
 80024b0:	461e      	mov	r6, r3
 80024b2:	8ce3      	ldrh	r3, [r4, #38]	@ 0x26
 80024b4:	b29b      	uxth	r3, r3
 80024b6:	b953      	cbnz	r3, 80024ce <HAL_UART_Transmit+0x5c>
 80024b8:	4643      	mov	r3, r8
 80024ba:	464a      	mov	r2, r9
 80024bc:	2140      	movs	r1, #64	@ 0x40
 80024be:	4620      	mov	r0, r4
 80024c0:	f7ff ff76 	bl	80023b0 <UART_WaitOnFlagUntilTimeout.constprop.0>
 80024c4:	2320      	movs	r3, #32
 80024c6:	b950      	cbnz	r0, 80024de <HAL_UART_Transmit+0x6c>
 80024c8:	f884 3041 	strb.w	r3, [r4, #65]	@ 0x41
 80024cc:	e00a      	b.n	80024e4 <HAL_UART_Transmit+0x72>
 80024ce:	4643      	mov	r3, r8
 80024d0:	464a      	mov	r2, r9
 80024d2:	2180      	movs	r1, #128	@ 0x80
 80024d4:	4620      	mov	r0, r4
 80024d6:	f7ff ff6b 	bl	80023b0 <UART_WaitOnFlagUntilTimeout.constprop.0>
 80024da:	b128      	cbz	r0, 80024e8 <HAL_UART_Transmit+0x76>
 80024dc:	2320      	movs	r3, #32
 80024de:	f884 3041 	strb.w	r3, [r4, #65]	@ 0x41
 80024e2:	2003      	movs	r0, #3
 80024e4:	e8bd 83f8 	ldmia.w	sp!, {r3, r4, r5, r6, r7, r8, r9, pc}
 80024e8:	6822      	ldr	r2, [r4, #0]
 80024ea:	b94e      	cbnz	r6, 8002500 <HAL_UART_Transmit+0x8e>
 80024ec:	f835 3b02 	ldrh.w	r3, [r5], #2
 80024f0:	f3c3 0308 	ubfx	r3, r3, #0, #9
 80024f4:	6053      	str	r3, [r2, #4]
 80024f6:	8ce1      	ldrh	r1, [r4, #38]	@ 0x26
 80024f8:	3901      	subs	r1, #1
 80024fa:	b289      	uxth	r1, r1
 80024fc:	84e1      	strh	r1, [r4, #38]	@ 0x26
 80024fe:	e7d8      	b.n	80024b2 <HAL_UART_Transmit+0x40>
 8002500:	f816 3b01 	ldrb.w	r3, [r6], #1
 8002504:	e7f6      	b.n	80024f4 <HAL_UART_Transmit+0x82>
 8002506:	2002      	movs	r0, #2
 8002508:	e7ec      	b.n	80024e4 <HAL_UART_Transmit+0x72>
 800250a:	2001      	movs	r0, #1
 800250c:	e7ea      	b.n	80024e4 <HAL_UART_Transmit+0x72>

0800250e <HAL_UART_TxCpltCallback>:
 800250e:	4770      	bx	lr

08002510 <HAL_UART_ErrorCallback>:
 8002510:	4770      	bx	lr

08002512 <UART_DMAAbortOnError>:
 8002512:	b508      	push	{r3, lr}
 8002514:	6b80      	ldr	r0, [r0, #56]	@ 0x38
 8002516:	2300      	movs	r3, #0
 8002518:	85c3      	strh	r3, [r0, #46]	@ 0x2e
 800251a:	f7ff fff9 	bl	8002510 <HAL_UART_ErrorCallback>
 800251e:	bd08      	pop	{r3, pc}

08002520 <HAL_UARTEx_RxEventCallback>:
 8002520:	4770      	bx	lr

08002522 <UART_Receive_IT.isra.0>:
 8002522:	f890 3042 	ldrb.w	r3, [r0, #66]	@ 0x42
 8002526:	2b22      	cmp	r3, #34	@ 0x22
 8002528:	b507      	push	{r0, r1, r2, lr}
 800252a:	d142      	bne.n	80025b2 <UART_Receive_IT.isra.0+0x90>
 800252c:	6881      	ldr	r1, [r0, #8]
 800252e:	6802      	ldr	r2, [r0, #0]
 8002530:	6a83      	ldr	r3, [r0, #40]	@ 0x28
 8002532:	f5b1 5f80 	cmp.w	r1, #4096	@ 0x1000
 8002536:	d13f      	bne.n	80025b8 <UART_Receive_IT.isra.0+0x96>
 8002538:	6901      	ldr	r1, [r0, #16]
 800253a:	2900      	cmp	r1, #0
 800253c:	d13f      	bne.n	80025be <UART_Receive_IT.isra.0+0x9c>
 800253e:	6852      	ldr	r2, [r2, #4]
 8002540:	f3c2 0208 	ubfx	r2, r2, #0, #9
 8002544:	f823 2b02 	strh.w	r2, [r3], #2
 8002548:	6283      	str	r3, [r0, #40]	@ 0x28
 800254a:	8dc3      	ldrh	r3, [r0, #46]	@ 0x2e
 800254c:	3b01      	subs	r3, #1
 800254e:	b29b      	uxth	r3, r3
 8002550:	85c3      	strh	r3, [r0, #46]	@ 0x2e
 8002552:	2b00      	cmp	r3, #0
 8002554:	d12d      	bne.n	80025b2 <UART_Receive_IT.isra.0+0x90>
 8002556:	6802      	ldr	r2, [r0, #0]
 8002558:	68d1      	ldr	r1, [r2, #12]
 800255a:	f021 0120 	bic.w	r1, r1, #32
 800255e:	60d1      	str	r1, [r2, #12]
 8002560:	68d1      	ldr	r1, [r2, #12]
 8002562:	f421 7180 	bic.w	r1, r1, #256	@ 0x100
 8002566:	60d1      	str	r1, [r2, #12]
 8002568:	6951      	ldr	r1, [r2, #20]
 800256a:	f021 0101 	bic.w	r1, r1, #1
 800256e:	6151      	str	r1, [r2, #20]
 8002570:	2220      	movs	r2, #32
 8002572:	f880 2042 	strb.w	r2, [r0, #66]	@ 0x42
 8002576:	6343      	str	r3, [r0, #52]	@ 0x34
 8002578:	6b02      	ldr	r2, [r0, #48]	@ 0x30
 800257a:	2a01      	cmp	r2, #1
 800257c:	6802      	ldr	r2, [r0, #0]
 800257e:	d128      	bne.n	80025d2 <UART_Receive_IT.isra.0+0xb0>
 8002580:	6303      	str	r3, [r0, #48]	@ 0x30
 8002582:	f102 030c 	add.w	r3, r2, #12
 8002586:	e853 3f00 	ldrex	r3, [r3]
 800258a:	f023 0310 	bic.w	r3, r3, #16
 800258e:	f102 0c0c 	add.w	ip, r2, #12
 8002592:	e84c 3100 	strex	r1, r3, [ip]
 8002596:	2900      	cmp	r1, #0
 8002598:	d1f3      	bne.n	8002582 <UART_Receive_IT.isra.0+0x60>
 800259a:	6813      	ldr	r3, [r2, #0]
 800259c:	06db      	lsls	r3, r3, #27
 800259e:	d505      	bpl.n	80025ac <UART_Receive_IT.isra.0+0x8a>
 80025a0:	9101      	str	r1, [sp, #4]
 80025a2:	6813      	ldr	r3, [r2, #0]
 80025a4:	9301      	str	r3, [sp, #4]
 80025a6:	6853      	ldr	r3, [r2, #4]
 80025a8:	9301      	str	r3, [sp, #4]
 80025aa:	9b01      	ldr	r3, [sp, #4]
 80025ac:	8d81      	ldrh	r1, [r0, #44]	@ 0x2c
 80025ae:	f7ff ffb7 	bl	8002520 <HAL_UARTEx_RxEventCallback>
 80025b2:	b003      	add	sp, #12
 80025b4:	f85d fb04 	ldr.w	pc, [sp], #4
 80025b8:	b939      	cbnz	r1, 80025ca <UART_Receive_IT.isra.0+0xa8>
 80025ba:	6901      	ldr	r1, [r0, #16]
 80025bc:	b929      	cbnz	r1, 80025ca <UART_Receive_IT.isra.0+0xa8>
 80025be:	6852      	ldr	r2, [r2, #4]
 80025c0:	b2d2      	uxtb	r2, r2
 80025c2:	701a      	strb	r2, [r3, #0]
 80025c4:	6a83      	ldr	r3, [r0, #40]	@ 0x28
 80025c6:	3301      	adds	r3, #1
 80025c8:	e7be      	b.n	8002548 <UART_Receive_IT.isra.0+0x26>
 80025ca:	6852      	ldr	r2, [r2, #4]
 80025cc:	f002 027f 	and.w	r2, r2, #127	@ 0x7f
 80025d0:	e7f7      	b.n	80025c2 <UART_Receive_IT.isra.0+0xa0>
 80025d2:	f7fe fbcd 	bl	8000d70 <HAL_UART_RxCpltCallback>
 80025d6:	e7ec      	b.n	80025b2 <UART_Receive_IT.isra.0+0x90>

080025d8 <HAL_UART_IRQHandler>:
 80025d8:	6803      	ldr	r3, [r0, #0]
 80025da:	681a      	ldr	r2, [r3, #0]
 80025dc:	b573      	push	{r0, r1, r4, r5, r6, lr}
 80025de:	0716      	lsls	r6, r2, #28
 80025e0:	68d9      	ldr	r1, [r3, #12]
 80025e2:	695d      	ldr	r5, [r3, #20]
 80025e4:	4604      	mov	r4, r0
 80025e6:	d108      	bne.n	80025fa <HAL_UART_IRQHandler+0x22>
 80025e8:	0696      	lsls	r6, r2, #26
 80025ea:	d568      	bpl.n	80026be <HAL_UART_IRQHandler+0xe6>
 80025ec:	068d      	lsls	r5, r1, #26
 80025ee:	d566      	bpl.n	80026be <HAL_UART_IRQHandler+0xe6>
 80025f0:	b002      	add	sp, #8
 80025f2:	e8bd 4070 	ldmia.w	sp!, {r4, r5, r6, lr}
 80025f6:	f7ff bf94 	b.w	8002522 <UART_Receive_IT.isra.0>
 80025fa:	f005 0001 	and.w	r0, r5, #1
 80025fe:	f401 7590 	and.w	r5, r1, #288	@ 0x120
 8002602:	4305      	orrs	r5, r0
 8002604:	d05b      	beq.n	80026be <HAL_UART_IRQHandler+0xe6>
 8002606:	07d6      	lsls	r6, r2, #31
 8002608:	d505      	bpl.n	8002616 <HAL_UART_IRQHandler+0x3e>
 800260a:	05cd      	lsls	r5, r1, #23
 800260c:	bf42      	ittt	mi
 800260e:	6c63      	ldrmi	r3, [r4, #68]	@ 0x44
 8002610:	f043 0301 	orrmi.w	r3, r3, #1
 8002614:	6463      	strmi	r3, [r4, #68]	@ 0x44
 8002616:	0753      	lsls	r3, r2, #29
 8002618:	d504      	bpl.n	8002624 <HAL_UART_IRQHandler+0x4c>
 800261a:	b118      	cbz	r0, 8002624 <HAL_UART_IRQHandler+0x4c>
 800261c:	6c63      	ldr	r3, [r4, #68]	@ 0x44
 800261e:	f043 0302 	orr.w	r3, r3, #2
 8002622:	6463      	str	r3, [r4, #68]	@ 0x44
 8002624:	0796      	lsls	r6, r2, #30
 8002626:	d504      	bpl.n	8002632 <HAL_UART_IRQHandler+0x5a>
 8002628:	b118      	cbz	r0, 8002632 <HAL_UART_IRQHandler+0x5a>
 800262a:	6c63      	ldr	r3, [r4, #68]	@ 0x44
 800262c:	f043 0304 	orr.w	r3, r3, #4
 8002630:	6463      	str	r3, [r4, #68]	@ 0x44
 8002632:	0715      	lsls	r5, r2, #28
 8002634:	d507      	bpl.n	8002646 <HAL_UART_IRQHandler+0x6e>
 8002636:	f001 0320 	and.w	r3, r1, #32
 800263a:	4303      	orrs	r3, r0
 800263c:	bf1e      	ittt	ne
 800263e:	6c63      	ldrne	r3, [r4, #68]	@ 0x44
 8002640:	f043 0308 	orrne.w	r3, r3, #8
 8002644:	6463      	strne	r3, [r4, #68]	@ 0x44
 8002646:	6c63      	ldr	r3, [r4, #68]	@ 0x44
 8002648:	2b00      	cmp	r3, #0
 800264a:	d032      	beq.n	80026b2 <HAL_UART_IRQHandler+0xda>
 800264c:	0692      	lsls	r2, r2, #26
 800264e:	d504      	bpl.n	800265a <HAL_UART_IRQHandler+0x82>
 8002650:	068b      	lsls	r3, r1, #26
 8002652:	d502      	bpl.n	800265a <HAL_UART_IRQHandler+0x82>
 8002654:	4620      	mov	r0, r4
 8002656:	f7ff ff64 	bl	8002522 <UART_Receive_IT.isra.0>
 800265a:	6826      	ldr	r6, [r4, #0]
 800265c:	6973      	ldr	r3, [r6, #20]
 800265e:	6c62      	ldr	r2, [r4, #68]	@ 0x44
 8002660:	f003 0340 	and.w	r3, r3, #64	@ 0x40
 8002664:	f002 0208 	and.w	r2, r2, #8
 8002668:	ea53 0502 	orrs.w	r5, r3, r2
 800266c:	4620      	mov	r0, r4
 800266e:	d022      	beq.n	80026b6 <HAL_UART_IRQHandler+0xde>
 8002670:	f7ff fe12 	bl	8002298 <UART_EndRxTransfer>
 8002674:	6973      	ldr	r3, [r6, #20]
 8002676:	065e      	lsls	r6, r3, #25
 8002678:	d518      	bpl.n	80026ac <HAL_UART_IRQHandler+0xd4>
 800267a:	6822      	ldr	r2, [r4, #0]
 800267c:	f102 0314 	add.w	r3, r2, #20
 8002680:	e853 3f00 	ldrex	r3, [r3]
 8002684:	f023 0340 	bic.w	r3, r3, #64	@ 0x40
 8002688:	3214      	adds	r2, #20
 800268a:	e842 3100 	strex	r1, r3, [r2]
 800268e:	2900      	cmp	r1, #0
 8002690:	d1f3      	bne.n	800267a <HAL_UART_IRQHandler+0xa2>
 8002692:	6be0      	ldr	r0, [r4, #60]	@ 0x3c
 8002694:	b150      	cbz	r0, 80026ac <HAL_UART_IRQHandler+0xd4>
 8002696:	4b77      	ldr	r3, [pc, #476]	@ (8002874 <HAL_UART_IRQHandler+0x29c>)
 8002698:	6503      	str	r3, [r0, #80]	@ 0x50
 800269a:	f7ff f80b 	bl	80016b4 <HAL_DMA_Abort_IT>
 800269e:	b140      	cbz	r0, 80026b2 <HAL_UART_IRQHandler+0xda>
 80026a0:	6be0      	ldr	r0, [r4, #60]	@ 0x3c
 80026a2:	6d03      	ldr	r3, [r0, #80]	@ 0x50
 80026a4:	b002      	add	sp, #8
 80026a6:	e8bd 4070 	ldmia.w	sp!, {r4, r5, r6, lr}
 80026aa:	4718      	bx	r3
 80026ac:	4620      	mov	r0, r4
 80026ae:	f7ff ff2f 	bl	8002510 <HAL_UART_ErrorCallback>
 80026b2:	b002      	add	sp, #8
 80026b4:	bd70      	pop	{r4, r5, r6, pc}
 80026b6:	f7ff ff2b 	bl	8002510 <HAL_UART_ErrorCallback>
 80026ba:	6465      	str	r5, [r4, #68]	@ 0x44
 80026bc:	e7f9      	b.n	80026b2 <HAL_UART_IRQHandler+0xda>
 80026be:	6b20      	ldr	r0, [r4, #48]	@ 0x30
 80026c0:	2801      	cmp	r0, #1
 80026c2:	f040 809b 	bne.w	80027fc <HAL_UART_IRQHandler+0x224>
 80026c6:	06d5      	lsls	r5, r2, #27
 80026c8:	f140 8098 	bpl.w	80027fc <HAL_UART_IRQHandler+0x224>
 80026cc:	06c8      	lsls	r0, r1, #27
 80026ce:	f140 8095 	bpl.w	80027fc <HAL_UART_IRQHandler+0x224>
 80026d2:	2200      	movs	r2, #0
 80026d4:	9201      	str	r2, [sp, #4]
 80026d6:	681a      	ldr	r2, [r3, #0]
 80026d8:	9201      	str	r2, [sp, #4]
 80026da:	685a      	ldr	r2, [r3, #4]
 80026dc:	9201      	str	r2, [sp, #4]
 80026de:	9a01      	ldr	r2, [sp, #4]
 80026e0:	6959      	ldr	r1, [r3, #20]
 80026e2:	8da2      	ldrh	r2, [r4, #44]	@ 0x2c
 80026e4:	0649      	lsls	r1, r1, #25
 80026e6:	d556      	bpl.n	8002796 <HAL_UART_IRQHandler+0x1be>
 80026e8:	6be0      	ldr	r0, [r4, #60]	@ 0x3c
 80026ea:	6801      	ldr	r1, [r0, #0]
 80026ec:	6849      	ldr	r1, [r1, #4]
 80026ee:	b289      	uxth	r1, r1
 80026f0:	2900      	cmp	r1, #0
 80026f2:	d047      	beq.n	8002784 <HAL_UART_IRQHandler+0x1ac>
 80026f4:	4291      	cmp	r1, r2
 80026f6:	d245      	bcs.n	8002784 <HAL_UART_IRQHandler+0x1ac>
 80026f8:	69c2      	ldr	r2, [r0, #28]
 80026fa:	85e1      	strh	r1, [r4, #46]	@ 0x2e
 80026fc:	f5b2 7f80 	cmp.w	r2, #256	@ 0x100
 8002700:	d036      	beq.n	8002770 <HAL_UART_IRQHandler+0x198>
 8002702:	f103 020c 	add.w	r2, r3, #12
 8002706:	e852 2f00 	ldrex	r2, [r2]
 800270a:	f422 7280 	bic.w	r2, r2, #256	@ 0x100
 800270e:	f103 000c 	add.w	r0, r3, #12
 8002712:	e840 2100 	strex	r1, r2, [r0]
 8002716:	2900      	cmp	r1, #0
 8002718:	d1f3      	bne.n	8002702 <HAL_UART_IRQHandler+0x12a>
 800271a:	f103 0214 	add.w	r2, r3, #20
 800271e:	e852 2f00 	ldrex	r2, [r2]
 8002722:	f022 0201 	bic.w	r2, r2, #1
 8002726:	f103 0014 	add.w	r0, r3, #20
 800272a:	e840 2100 	strex	r1, r2, [r0]
 800272e:	2900      	cmp	r1, #0
 8002730:	d1f3      	bne.n	800271a <HAL_UART_IRQHandler+0x142>
 8002732:	f103 0214 	add.w	r2, r3, #20
 8002736:	e852 2f00 	ldrex	r2, [r2]
 800273a:	f022 0240 	bic.w	r2, r2, #64	@ 0x40
 800273e:	f103 0014 	add.w	r0, r3, #20
 8002742:	e840 2100 	strex	r1, r2, [r0]
 8002746:	2900      	cmp	r1, #0
 8002748:	d1f3      	bne.n	8002732 <HAL_UART_IRQHandler+0x15a>
 800274a:	2220      	movs	r2, #32
 800274c:	f884 2042 	strb.w	r2, [r4, #66]	@ 0x42
 8002750:	6321      	str	r1, [r4, #48]	@ 0x30
 8002752:	f103 020c 	add.w	r2, r3, #12
 8002756:	e852 2f00 	ldrex	r2, [r2]
 800275a:	f022 0210 	bic.w	r2, r2, #16
 800275e:	f103 000c 	add.w	r0, r3, #12
 8002762:	e840 2100 	strex	r1, r2, [r0]
 8002766:	2900      	cmp	r1, #0
 8002768:	d1f3      	bne.n	8002752 <HAL_UART_IRQHandler+0x17a>
 800276a:	6be0      	ldr	r0, [r4, #60]	@ 0x3c
 800276c:	f7fe ff64 	bl	8001638 <HAL_DMA_Abort>
 8002770:	2302      	movs	r3, #2
 8002772:	6363      	str	r3, [r4, #52]	@ 0x34
 8002774:	8de3      	ldrh	r3, [r4, #46]	@ 0x2e
 8002776:	8da1      	ldrh	r1, [r4, #44]	@ 0x2c
 8002778:	1ac9      	subs	r1, r1, r3
 800277a:	b289      	uxth	r1, r1
 800277c:	4620      	mov	r0, r4
 800277e:	f7ff fecf 	bl	8002520 <HAL_UARTEx_RxEventCallback>
 8002782:	e796      	b.n	80026b2 <HAL_UART_IRQHandler+0xda>
 8002784:	4291      	cmp	r1, r2
 8002786:	d194      	bne.n	80026b2 <HAL_UART_IRQHandler+0xda>
 8002788:	69c3      	ldr	r3, [r0, #28]
 800278a:	f5b3 7f80 	cmp.w	r3, #256	@ 0x100
 800278e:	d190      	bne.n	80026b2 <HAL_UART_IRQHandler+0xda>
 8002790:	2302      	movs	r3, #2
 8002792:	6363      	str	r3, [r4, #52]	@ 0x34
 8002794:	e7f2      	b.n	800277c <HAL_UART_IRQHandler+0x1a4>
 8002796:	8de1      	ldrh	r1, [r4, #46]	@ 0x2e
 8002798:	8de0      	ldrh	r0, [r4, #46]	@ 0x2e
 800279a:	b280      	uxth	r0, r0
 800279c:	b289      	uxth	r1, r1
 800279e:	2800      	cmp	r0, #0
 80027a0:	d087      	beq.n	80026b2 <HAL_UART_IRQHandler+0xda>
 80027a2:	1a51      	subs	r1, r2, r1
 80027a4:	b289      	uxth	r1, r1
 80027a6:	2900      	cmp	r1, #0
 80027a8:	d083      	beq.n	80026b2 <HAL_UART_IRQHandler+0xda>
 80027aa:	f103 020c 	add.w	r2, r3, #12
 80027ae:	e852 2f00 	ldrex	r2, [r2]
 80027b2:	f422 7290 	bic.w	r2, r2, #288	@ 0x120
 80027b6:	f103 050c 	add.w	r5, r3, #12
 80027ba:	e845 2000 	strex	r0, r2, [r5]
 80027be:	2800      	cmp	r0, #0
 80027c0:	d1f3      	bne.n	80027aa <HAL_UART_IRQHandler+0x1d2>
 80027c2:	f103 0214 	add.w	r2, r3, #20
 80027c6:	e852 2f00 	ldrex	r2, [r2]
 80027ca:	f022 0201 	bic.w	r2, r2, #1
 80027ce:	f103 0514 	add.w	r5, r3, #20
 80027d2:	e845 2000 	strex	r0, r2, [r5]
 80027d6:	2800      	cmp	r0, #0
 80027d8:	d1f3      	bne.n	80027c2 <HAL_UART_IRQHandler+0x1ea>
 80027da:	2220      	movs	r2, #32
 80027dc:	f884 2042 	strb.w	r2, [r4, #66]	@ 0x42
 80027e0:	6320      	str	r0, [r4, #48]	@ 0x30
 80027e2:	f103 020c 	add.w	r2, r3, #12
 80027e6:	e852 2f00 	ldrex	r2, [r2]
 80027ea:	f022 0210 	bic.w	r2, r2, #16
 80027ee:	f103 050c 	add.w	r5, r3, #12
 80027f2:	e845 2000 	strex	r0, r2, [r5]
 80027f6:	2800      	cmp	r0, #0
 80027f8:	d1f3      	bne.n	80027e2 <HAL_UART_IRQHandler+0x20a>
 80027fa:	e7c9      	b.n	8002790 <HAL_UART_IRQHandler+0x1b8>
 80027fc:	0616      	lsls	r6, r2, #24
 80027fe:	d528      	bpl.n	8002852 <HAL_UART_IRQHandler+0x27a>
 8002800:	060d      	lsls	r5, r1, #24
 8002802:	d526      	bpl.n	8002852 <HAL_UART_IRQHandler+0x27a>
 8002804:	f894 2041 	ldrb.w	r2, [r4, #65]	@ 0x41
 8002808:	2a21      	cmp	r2, #33	@ 0x21
 800280a:	f47f af52 	bne.w	80026b2 <HAL_UART_IRQHandler+0xda>
 800280e:	68a1      	ldr	r1, [r4, #8]
 8002810:	6a22      	ldr	r2, [r4, #32]
 8002812:	f5b1 5f80 	cmp.w	r1, #4096	@ 0x1000
 8002816:	d117      	bne.n	8002848 <HAL_UART_IRQHandler+0x270>
 8002818:	6921      	ldr	r1, [r4, #16]
 800281a:	b9a9      	cbnz	r1, 8002848 <HAL_UART_IRQHandler+0x270>
 800281c:	f832 1b02 	ldrh.w	r1, [r2], #2
 8002820:	f3c1 0108 	ubfx	r1, r1, #0, #9
 8002824:	6059      	str	r1, [r3, #4]
 8002826:	6222      	str	r2, [r4, #32]
 8002828:	8ce2      	ldrh	r2, [r4, #38]	@ 0x26
 800282a:	3a01      	subs	r2, #1
 800282c:	b292      	uxth	r2, r2
 800282e:	84e2      	strh	r2, [r4, #38]	@ 0x26
 8002830:	2a00      	cmp	r2, #0
 8002832:	f47f af3e 	bne.w	80026b2 <HAL_UART_IRQHandler+0xda>
 8002836:	68da      	ldr	r2, [r3, #12]
 8002838:	f022 0280 	bic.w	r2, r2, #128	@ 0x80
 800283c:	60da      	str	r2, [r3, #12]
 800283e:	68da      	ldr	r2, [r3, #12]
 8002840:	f042 0240 	orr.w	r2, r2, #64	@ 0x40
 8002844:	60da      	str	r2, [r3, #12]
 8002846:	e734      	b.n	80026b2 <HAL_UART_IRQHandler+0xda>
 8002848:	1c51      	adds	r1, r2, #1
 800284a:	6221      	str	r1, [r4, #32]
 800284c:	7812      	ldrb	r2, [r2, #0]
 800284e:	605a      	str	r2, [r3, #4]
 8002850:	e7ea      	b.n	8002828 <HAL_UART_IRQHandler+0x250>
 8002852:	0650      	lsls	r0, r2, #25
 8002854:	f57f af2d 	bpl.w	80026b2 <HAL_UART_IRQHandler+0xda>
 8002858:	064a      	lsls	r2, r1, #25
 800285a:	f57f af2a 	bpl.w	80026b2 <HAL_UART_IRQHandler+0xda>
 800285e:	68da      	ldr	r2, [r3, #12]
 8002860:	f022 0240 	bic.w	r2, r2, #64	@ 0x40
 8002864:	60da      	str	r2, [r3, #12]
 8002866:	2320      	movs	r3, #32
 8002868:	f884 3041 	strb.w	r3, [r4, #65]	@ 0x41
 800286c:	4620      	mov	r0, r4
 800286e:	f7ff fe4e 	bl	800250e <HAL_UART_TxCpltCallback>
 8002872:	e71e      	b.n	80026b2 <HAL_UART_IRQHandler+0xda>
 8002874:	08002513 	.word	0x08002513

08002878 <UART_Start_Receive_IT>:
 8002878:	85c2      	strh	r2, [r0, #46]	@ 0x2e
 800287a:	2300      	movs	r3, #0
 800287c:	8582      	strh	r2, [r0, #44]	@ 0x2c
 800287e:	6902      	ldr	r2, [r0, #16]
 8002880:	6443      	str	r3, [r0, #68]	@ 0x44
 8002882:	2322      	movs	r3, #34	@ 0x22
 8002884:	f880 3042 	strb.w	r3, [r0, #66]	@ 0x42
 8002888:	6281      	str	r1, [r0, #40]	@ 0x28
 800288a:	6803      	ldr	r3, [r0, #0]
 800288c:	b11a      	cbz	r2, 8002896 <UART_Start_Receive_IT+0x1e>
 800288e:	68da      	ldr	r2, [r3, #12]
 8002890:	f442 7280 	orr.w	r2, r2, #256	@ 0x100
 8002894:	60da      	str	r2, [r3, #12]
 8002896:	695a      	ldr	r2, [r3, #20]
 8002898:	f042 0201 	orr.w	r2, r2, #1
 800289c:	615a      	str	r2, [r3, #20]
 800289e:	68da      	ldr	r2, [r3, #12]
 80028a0:	f042 0220 	orr.w	r2, r2, #32
 80028a4:	60da      	str	r2, [r3, #12]
 80028a6:	2000      	movs	r0, #0
 80028a8:	4770      	bx	lr

080028aa <HAL_UART_Receive_IT>:
 80028aa:	b470      	push	{r4, r5, r6}
 80028ac:	f890 6042 	ldrb.w	r6, [r0, #66]	@ 0x42
 80028b0:	2e20      	cmp	r6, #32
 80028b2:	d106      	bne.n	80028c2 <HAL_UART_Receive_IT+0x18>
 80028b4:	b141      	cbz	r1, 80028c8 <HAL_UART_Receive_IT+0x1e>
 80028b6:	b13a      	cbz	r2, 80028c8 <HAL_UART_Receive_IT+0x1e>
 80028b8:	2400      	movs	r4, #0
 80028ba:	6304      	str	r4, [r0, #48]	@ 0x30
 80028bc:	bc70      	pop	{r4, r5, r6}
 80028be:	f7ff bfdb 	b.w	8002878 <UART_Start_Receive_IT>
 80028c2:	2002      	movs	r0, #2
 80028c4:	bc70      	pop	{r4, r5, r6}
 80028c6:	4770      	bx	lr
 80028c8:	2001      	movs	r0, #1
 80028ca:	e7fb      	b.n	80028c4 <HAL_UART_Receive_IT+0x1a>

080028cc <sniprintf>:
 80028cc:	b40c      	push	{r2, r3}
 80028ce:	b530      	push	{r4, r5, lr}
 80028d0:	4b18      	ldr	r3, [pc, #96]	@ (8002934 <sniprintf+0x68>)
 80028d2:	1e0c      	subs	r4, r1, #0
 80028d4:	681d      	ldr	r5, [r3, #0]
 80028d6:	b09d      	sub	sp, #116	@ 0x74
 80028d8:	da08      	bge.n	80028ec <sniprintf+0x20>
 80028da:	238b      	movs	r3, #139	@ 0x8b
 80028dc:	602b      	str	r3, [r5, #0]
 80028de:	f04f 30ff 	mov.w	r0, #4294967295	@ 0xffffffff
 80028e2:	b01d      	add	sp, #116	@ 0x74
 80028e4:	e8bd 4030 	ldmia.w	sp!, {r4, r5, lr}
 80028e8:	b002      	add	sp, #8
 80028ea:	4770      	bx	lr
 80028ec:	f44f 7302 	mov.w	r3, #520	@ 0x208
 80028f0:	f8ad 3014 	strh.w	r3, [sp, #20]
 80028f4:	f04f 0300 	mov.w	r3, #0
 80028f8:	931b      	str	r3, [sp, #108]	@ 0x6c
 80028fa:	bf14      	ite	ne
 80028fc:	f104 33ff 	addne.w	r3, r4, #4294967295	@ 0xffffffff
 8002900:	4623      	moveq	r3, r4
 8002902:	9304      	str	r3, [sp, #16]
 8002904:	9307      	str	r3, [sp, #28]
 8002906:	f64f 73ff 	movw	r3, #65535	@ 0xffff
 800290a:	9002      	str	r0, [sp, #8]
 800290c:	9006      	str	r0, [sp, #24]
 800290e:	f8ad 3016 	strh.w	r3, [sp, #22]
 8002912:	9a20      	ldr	r2, [sp, #128]	@ 0x80
 8002914:	ab21      	add	r3, sp, #132	@ 0x84
 8002916:	a902      	add	r1, sp, #8
 8002918:	4628      	mov	r0, r5
 800291a:	9301      	str	r3, [sp, #4]
 800291c:	f000 f9b6 	bl	8002c8c <_svfiprintf_r>
 8002920:	1c43      	adds	r3, r0, #1
 8002922:	bfbc      	itt	lt
 8002924:	238b      	movlt	r3, #139	@ 0x8b
 8002926:	602b      	strlt	r3, [r5, #0]
 8002928:	2c00      	cmp	r4, #0
 800292a:	d0da      	beq.n	80028e2 <sniprintf+0x16>
 800292c:	9b02      	ldr	r3, [sp, #8]
 800292e:	2200      	movs	r2, #0
 8002930:	701a      	strb	r2, [r3, #0]
 8002932:	e7d6      	b.n	80028e2 <sniprintf+0x16>
 8002934:	2000000c 	.word	0x2000000c

08002938 <siprintf>:
 8002938:	b40e      	push	{r1, r2, r3}
 800293a:	b510      	push	{r4, lr}
 800293c:	b09d      	sub	sp, #116	@ 0x74
 800293e:	ab1f      	add	r3, sp, #124	@ 0x7c
 8002940:	9002      	str	r0, [sp, #8]
 8002942:	9006      	str	r0, [sp, #24]
 8002944:	f06f 4100 	mvn.w	r1, #2147483648	@ 0x80000000
 8002948:	480a      	ldr	r0, [pc, #40]	@ (8002974 <siprintf+0x3c>)
 800294a:	9107      	str	r1, [sp, #28]
 800294c:	9104      	str	r1, [sp, #16]
 800294e:	490a      	ldr	r1, [pc, #40]	@ (8002978 <siprintf+0x40>)
 8002950:	f853 2b04 	ldr.w	r2, [r3], #4
 8002954:	9105      	str	r1, [sp, #20]
 8002956:	2400      	movs	r4, #0
 8002958:	a902      	add	r1, sp, #8
 800295a:	6800      	ldr	r0, [r0, #0]
 800295c:	9301      	str	r3, [sp, #4]
 800295e:	941b      	str	r4, [sp, #108]	@ 0x6c
 8002960:	f000 f994 	bl	8002c8c <_svfiprintf_r>
 8002964:	9b02      	ldr	r3, [sp, #8]
 8002966:	701c      	strb	r4, [r3, #0]
 8002968:	b01d      	add	sp, #116	@ 0x74
 800296a:	e8bd 4010 	ldmia.w	sp!, {r4, lr}
 800296e:	b003      	add	sp, #12
 8002970:	4770      	bx	lr
 8002972:	bf00      	nop
 8002974:	2000000c 	.word	0x2000000c
 8002978:	ffff0208 	.word	0xffff0208

0800297c <memset>:
 800297c:	4402      	add	r2, r0
 800297e:	4603      	mov	r3, r0
 8002980:	4293      	cmp	r3, r2
 8002982:	d100      	bne.n	8002986 <memset+0xa>
 8002984:	4770      	bx	lr
 8002986:	f803 1b01 	strb.w	r1, [r3], #1
 800298a:	e7f9      	b.n	8002980 <memset+0x4>

0800298c <__errno>:
 800298c:	4b01      	ldr	r3, [pc, #4]	@ (8002994 <__errno+0x8>)
 800298e:	6818      	ldr	r0, [r3, #0]
 8002990:	4770      	bx	lr
 8002992:	bf00      	nop
 8002994:	2000000c 	.word	0x2000000c

08002998 <__libc_init_array>:
 8002998:	b570      	push	{r4, r5, r6, lr}
 800299a:	4d0d      	ldr	r5, [pc, #52]	@ (80029d0 <__libc_init_array+0x38>)
 800299c:	4c0d      	ldr	r4, [pc, #52]	@ (80029d4 <__libc_init_array+0x3c>)
 800299e:	1b64      	subs	r4, r4, r5
 80029a0:	10a4      	asrs	r4, r4, #2
 80029a2:	2600      	movs	r6, #0
 80029a4:	42a6      	cmp	r6, r4
 80029a6:	d109      	bne.n	80029bc <__libc_init_array+0x24>
 80029a8:	4d0b      	ldr	r5, [pc, #44]	@ (80029d8 <__libc_init_array+0x40>)
 80029aa:	4c0c      	ldr	r4, [pc, #48]	@ (80029dc <__libc_init_array+0x44>)
 80029ac:	f000 fc64 	bl	8003278 <_init>
 80029b0:	1b64      	subs	r4, r4, r5
 80029b2:	10a4      	asrs	r4, r4, #2
 80029b4:	2600      	movs	r6, #0
 80029b6:	42a6      	cmp	r6, r4
 80029b8:	d105      	bne.n	80029c6 <__libc_init_array+0x2e>
 80029ba:	bd70      	pop	{r4, r5, r6, pc}
 80029bc:	f855 3b04 	ldr.w	r3, [r5], #4
 80029c0:	4798      	blx	r3
 80029c2:	3601      	adds	r6, #1
 80029c4:	e7ee      	b.n	80029a4 <__libc_init_array+0xc>
 80029c6:	f855 3b04 	ldr.w	r3, [r5], #4
 80029ca:	4798      	blx	r3
 80029cc:	3601      	adds	r6, #1
 80029ce:	e7f2      	b.n	80029b6 <__libc_init_array+0x1e>
 80029d0:	08003330 	.word	0x08003330
 80029d4:	08003330 	.word	0x08003330
 80029d8:	08003330 	.word	0x08003330
 80029dc:	08003334 	.word	0x08003334

080029e0 <__retarget_lock_acquire_recursive>:
 80029e0:	4770      	bx	lr

080029e2 <__retarget_lock_release_recursive>:
 80029e2:	4770      	bx	lr

080029e4 <_free_r>:
 80029e4:	b538      	push	{r3, r4, r5, lr}
 80029e6:	4605      	mov	r5, r0
 80029e8:	2900      	cmp	r1, #0
 80029ea:	d041      	beq.n	8002a70 <_free_r+0x8c>
 80029ec:	f851 3c04 	ldr.w	r3, [r1, #-4]
 80029f0:	1f0c      	subs	r4, r1, #4
 80029f2:	2b00      	cmp	r3, #0
 80029f4:	bfb8      	it	lt
 80029f6:	18e4      	addlt	r4, r4, r3
 80029f8:	f000 f8e0 	bl	8002bbc <__malloc_lock>
 80029fc:	4a1d      	ldr	r2, [pc, #116]	@ (8002a74 <_free_r+0x90>)
 80029fe:	6813      	ldr	r3, [r2, #0]
 8002a00:	b933      	cbnz	r3, 8002a10 <_free_r+0x2c>
 8002a02:	6063      	str	r3, [r4, #4]
 8002a04:	6014      	str	r4, [r2, #0]
 8002a06:	4628      	mov	r0, r5
 8002a08:	e8bd 4038 	ldmia.w	sp!, {r3, r4, r5, lr}
 8002a0c:	f000 b8dc 	b.w	8002bc8 <__malloc_unlock>
 8002a10:	42a3      	cmp	r3, r4
 8002a12:	d908      	bls.n	8002a26 <_free_r+0x42>
 8002a14:	6820      	ldr	r0, [r4, #0]
 8002a16:	1821      	adds	r1, r4, r0
 8002a18:	428b      	cmp	r3, r1
 8002a1a:	bf01      	itttt	eq
 8002a1c:	6819      	ldreq	r1, [r3, #0]
 8002a1e:	685b      	ldreq	r3, [r3, #4]
 8002a20:	1809      	addeq	r1, r1, r0
 8002a22:	6021      	streq	r1, [r4, #0]
 8002a24:	e7ed      	b.n	8002a02 <_free_r+0x1e>
 8002a26:	461a      	mov	r2, r3
 8002a28:	685b      	ldr	r3, [r3, #4]
 8002a2a:	b10b      	cbz	r3, 8002a30 <_free_r+0x4c>
 8002a2c:	42a3      	cmp	r3, r4
 8002a2e:	d9fa      	bls.n	8002a26 <_free_r+0x42>
 8002a30:	6811      	ldr	r1, [r2, #0]
 8002a32:	1850      	adds	r0, r2, r1
 8002a34:	42a0      	cmp	r0, r4
 8002a36:	d10b      	bne.n	8002a50 <_free_r+0x6c>
 8002a38:	6820      	ldr	r0, [r4, #0]
 8002a3a:	4401      	add	r1, r0
 8002a3c:	1850      	adds	r0, r2, r1
 8002a3e:	4283      	cmp	r3, r0
 8002a40:	6011      	str	r1, [r2, #0]
 8002a42:	d1e0      	bne.n	8002a06 <_free_r+0x22>
 8002a44:	6818      	ldr	r0, [r3, #0]
 8002a46:	685b      	ldr	r3, [r3, #4]
 8002a48:	6053      	str	r3, [r2, #4]
 8002a4a:	4408      	add	r0, r1
 8002a4c:	6010      	str	r0, [r2, #0]
 8002a4e:	e7da      	b.n	8002a06 <_free_r+0x22>
 8002a50:	d902      	bls.n	8002a58 <_free_r+0x74>
 8002a52:	230c      	movs	r3, #12
 8002a54:	602b      	str	r3, [r5, #0]
 8002a56:	e7d6      	b.n	8002a06 <_free_r+0x22>
 8002a58:	6820      	ldr	r0, [r4, #0]
 8002a5a:	1821      	adds	r1, r4, r0
 8002a5c:	428b      	cmp	r3, r1
 8002a5e:	bf04      	itt	eq
 8002a60:	6819      	ldreq	r1, [r3, #0]
 8002a62:	685b      	ldreq	r3, [r3, #4]
 8002a64:	6063      	str	r3, [r4, #4]
 8002a66:	bf04      	itt	eq
 8002a68:	1809      	addeq	r1, r1, r0
 8002a6a:	6021      	streq	r1, [r4, #0]
 8002a6c:	6054      	str	r4, [r2, #4]
 8002a6e:	e7ca      	b.n	8002a06 <_free_r+0x22>
 8002a70:	bd38      	pop	{r3, r4, r5, pc}
 8002a72:	bf00      	nop
 8002a74:	2000034c 	.word	0x2000034c

08002a78 <sbrk_aligned>:
 8002a78:	b570      	push	{r4, r5, r6, lr}
 8002a7a:	4e0f      	ldr	r6, [pc, #60]	@ (8002ab8 <sbrk_aligned+0x40>)
 8002a7c:	460c      	mov	r4, r1
 8002a7e:	6831      	ldr	r1, [r6, #0]
 8002a80:	4605      	mov	r5, r0
 8002a82:	b911      	cbnz	r1, 8002a8a <sbrk_aligned+0x12>
 8002a84:	f000 fba4 	bl	80031d0 <_sbrk_r>
 8002a88:	6030      	str	r0, [r6, #0]
 8002a8a:	4621      	mov	r1, r4
 8002a8c:	4628      	mov	r0, r5
 8002a8e:	f000 fb9f 	bl	80031d0 <_sbrk_r>
 8002a92:	1c43      	adds	r3, r0, #1
 8002a94:	d103      	bne.n	8002a9e <sbrk_aligned+0x26>
 8002a96:	f04f 34ff 	mov.w	r4, #4294967295	@ 0xffffffff
 8002a9a:	4620      	mov	r0, r4
 8002a9c:	bd70      	pop	{r4, r5, r6, pc}
 8002a9e:	1cc4      	adds	r4, r0, #3
 8002aa0:	f024 0403 	bic.w	r4, r4, #3
 8002aa4:	42a0      	cmp	r0, r4
 8002aa6:	d0f8      	beq.n	8002a9a <sbrk_aligned+0x22>
 8002aa8:	1a21      	subs	r1, r4, r0
 8002aaa:	4628      	mov	r0, r5
 8002aac:	f000 fb90 	bl	80031d0 <_sbrk_r>
 8002ab0:	3001      	adds	r0, #1
 8002ab2:	d1f2      	bne.n	8002a9a <sbrk_aligned+0x22>
 8002ab4:	e7ef      	b.n	8002a96 <sbrk_aligned+0x1e>
 8002ab6:	bf00      	nop
 8002ab8:	20000348 	.word	0x20000348

08002abc <_malloc_r>:
 8002abc:	e92d 43f8 	stmdb	sp!, {r3, r4, r5, r6, r7, r8, r9, lr}
 8002ac0:	1ccd      	adds	r5, r1, #3
 8002ac2:	f025 0503 	bic.w	r5, r5, #3
 8002ac6:	3508      	adds	r5, #8
 8002ac8:	2d0c      	cmp	r5, #12
 8002aca:	bf38      	it	cc
 8002acc:	250c      	movcc	r5, #12
 8002ace:	2d00      	cmp	r5, #0
 8002ad0:	4606      	mov	r6, r0
 8002ad2:	db01      	blt.n	8002ad8 <_malloc_r+0x1c>
 8002ad4:	42a9      	cmp	r1, r5
 8002ad6:	d904      	bls.n	8002ae2 <_malloc_r+0x26>
 8002ad8:	230c      	movs	r3, #12
 8002ada:	6033      	str	r3, [r6, #0]
 8002adc:	2000      	movs	r0, #0
 8002ade:	e8bd 83f8 	ldmia.w	sp!, {r3, r4, r5, r6, r7, r8, r9, pc}
 8002ae2:	f8df 80d4 	ldr.w	r8, [pc, #212]	@ 8002bb8 <_malloc_r+0xfc>
 8002ae6:	f000 f869 	bl	8002bbc <__malloc_lock>
 8002aea:	f8d8 3000 	ldr.w	r3, [r8]
 8002aee:	461c      	mov	r4, r3
 8002af0:	bb44      	cbnz	r4, 8002b44 <_malloc_r+0x88>
 8002af2:	4629      	mov	r1, r5
 8002af4:	4630      	mov	r0, r6
 8002af6:	f7ff ffbf 	bl	8002a78 <sbrk_aligned>
 8002afa:	1c43      	adds	r3, r0, #1
 8002afc:	4604      	mov	r4, r0
 8002afe:	d158      	bne.n	8002bb2 <_malloc_r+0xf6>
 8002b00:	f8d8 4000 	ldr.w	r4, [r8]
 8002b04:	4627      	mov	r7, r4
 8002b06:	2f00      	cmp	r7, #0
 8002b08:	d143      	bne.n	8002b92 <_malloc_r+0xd6>
 8002b0a:	2c00      	cmp	r4, #0
 8002b0c:	d04b      	beq.n	8002ba6 <_malloc_r+0xea>
 8002b0e:	6823      	ldr	r3, [r4, #0]
 8002b10:	4639      	mov	r1, r7
 8002b12:	4630      	mov	r0, r6
 8002b14:	eb04 0903 	add.w	r9, r4, r3
 8002b18:	f000 fb5a 	bl	80031d0 <_sbrk_r>
 8002b1c:	4581      	cmp	r9, r0
 8002b1e:	d142      	bne.n	8002ba6 <_malloc_r+0xea>
 8002b20:	6821      	ldr	r1, [r4, #0]
 8002b22:	1a6d      	subs	r5, r5, r1
 8002b24:	4629      	mov	r1, r5
 8002b26:	4630      	mov	r0, r6
 8002b28:	f7ff ffa6 	bl	8002a78 <sbrk_aligned>
 8002b2c:	3001      	adds	r0, #1
 8002b2e:	d03a      	beq.n	8002ba6 <_malloc_r+0xea>
 8002b30:	6823      	ldr	r3, [r4, #0]
 8002b32:	442b      	add	r3, r5
 8002b34:	6023      	str	r3, [r4, #0]
 8002b36:	f8d8 3000 	ldr.w	r3, [r8]
 8002b3a:	685a      	ldr	r2, [r3, #4]
 8002b3c:	bb62      	cbnz	r2, 8002b98 <_malloc_r+0xdc>
 8002b3e:	f8c8 7000 	str.w	r7, [r8]
 8002b42:	e00f      	b.n	8002b64 <_malloc_r+0xa8>
 8002b44:	6822      	ldr	r2, [r4, #0]
 8002b46:	1b52      	subs	r2, r2, r5
 8002b48:	d420      	bmi.n	8002b8c <_malloc_r+0xd0>
 8002b4a:	2a0b      	cmp	r2, #11
 8002b4c:	d917      	bls.n	8002b7e <_malloc_r+0xc2>
 8002b4e:	1961      	adds	r1, r4, r5
 8002b50:	42a3      	cmp	r3, r4
 8002b52:	6025      	str	r5, [r4, #0]
 8002b54:	bf18      	it	ne
 8002b56:	6059      	strne	r1, [r3, #4]
 8002b58:	6863      	ldr	r3, [r4, #4]
 8002b5a:	bf08      	it	eq
 8002b5c:	f8c8 1000 	streq.w	r1, [r8]
 8002b60:	5162      	str	r2, [r4, r5]
 8002b62:	604b      	str	r3, [r1, #4]
 8002b64:	4630      	mov	r0, r6
 8002b66:	f000 f82f 	bl	8002bc8 <__malloc_unlock>
 8002b6a:	f104 000b 	add.w	r0, r4, #11
 8002b6e:	1d23      	adds	r3, r4, #4
 8002b70:	f020 0007 	bic.w	r0, r0, #7
 8002b74:	1ac2      	subs	r2, r0, r3
 8002b76:	bf1c      	itt	ne
 8002b78:	1a1b      	subne	r3, r3, r0
 8002b7a:	50a3      	strne	r3, [r4, r2]
 8002b7c:	e7af      	b.n	8002ade <_malloc_r+0x22>
 8002b7e:	6862      	ldr	r2, [r4, #4]
 8002b80:	42a3      	cmp	r3, r4
 8002b82:	bf0c      	ite	eq
 8002b84:	f8c8 2000 	streq.w	r2, [r8]
 8002b88:	605a      	strne	r2, [r3, #4]
 8002b8a:	e7eb      	b.n	8002b64 <_malloc_r+0xa8>
 8002b8c:	4623      	mov	r3, r4
 8002b8e:	6864      	ldr	r4, [r4, #4]
 8002b90:	e7ae      	b.n	8002af0 <_malloc_r+0x34>
 8002b92:	463c      	mov	r4, r7
 8002b94:	687f      	ldr	r7, [r7, #4]
 8002b96:	e7b6      	b.n	8002b06 <_malloc_r+0x4a>
 8002b98:	461a      	mov	r2, r3
 8002b9a:	685b      	ldr	r3, [r3, #4]
 8002b9c:	42a3      	cmp	r3, r4
 8002b9e:	d1fb      	bne.n	8002b98 <_malloc_r+0xdc>
 8002ba0:	2300      	movs	r3, #0
 8002ba2:	6053      	str	r3, [r2, #4]
 8002ba4:	e7de      	b.n	8002b64 <_malloc_r+0xa8>
 8002ba6:	230c      	movs	r3, #12
 8002ba8:	6033      	str	r3, [r6, #0]
 8002baa:	4630      	mov	r0, r6
 8002bac:	f000 f80c 	bl	8002bc8 <__malloc_unlock>
 8002bb0:	e794      	b.n	8002adc <_malloc_r+0x20>
 8002bb2:	6005      	str	r5, [r0, #0]
 8002bb4:	e7d6      	b.n	8002b64 <_malloc_r+0xa8>
 8002bb6:	bf00      	nop
 8002bb8:	2000034c 	.word	0x2000034c

08002bbc <__malloc_lock>:
 8002bbc:	4801      	ldr	r0, [pc, #4]	@ (8002bc4 <__malloc_lock+0x8>)
 8002bbe:	f7ff bf0f 	b.w	80029e0 <__retarget_lock_acquire_recursive>
 8002bc2:	bf00      	nop
 8002bc4:	20000344 	.word	0x20000344

08002bc8 <__malloc_unlock>:
 8002bc8:	4801      	ldr	r0, [pc, #4]	@ (8002bd0 <__malloc_unlock+0x8>)
 8002bca:	f7ff bf0a 	b.w	80029e2 <__retarget_lock_release_recursive>
 8002bce:	bf00      	nop
 8002bd0:	20000344 	.word	0x20000344

08002bd4 <__ssputs_r>:
 8002bd4:	e92d 47f0 	stmdb	sp!, {r4, r5, r6, r7, r8, r9, sl, lr}
 8002bd8:	688e      	ldr	r6, [r1, #8]
 8002bda:	461f      	mov	r7, r3
 8002bdc:	42be      	cmp	r6, r7
 8002bde:	680b      	ldr	r3, [r1, #0]
 8002be0:	4682      	mov	sl, r0
 8002be2:	460c      	mov	r4, r1
 8002be4:	4690      	mov	r8, r2
 8002be6:	d82d      	bhi.n	8002c44 <__ssputs_r+0x70>
 8002be8:	f9b1 200c 	ldrsh.w	r2, [r1, #12]
 8002bec:	f412 6f90 	tst.w	r2, #1152	@ 0x480
 8002bf0:	d026      	beq.n	8002c40 <__ssputs_r+0x6c>
 8002bf2:	6965      	ldr	r5, [r4, #20]
 8002bf4:	6909      	ldr	r1, [r1, #16]
 8002bf6:	eb05 0545 	add.w	r5, r5, r5, lsl #1
 8002bfa:	eba3 0901 	sub.w	r9, r3, r1
 8002bfe:	eb05 75d5 	add.w	r5, r5, r5, lsr #31
 8002c02:	1c7b      	adds	r3, r7, #1
 8002c04:	444b      	add	r3, r9
 8002c06:	106d      	asrs	r5, r5, #1
 8002c08:	429d      	cmp	r5, r3
 8002c0a:	bf38      	it	cc
 8002c0c:	461d      	movcc	r5, r3
 8002c0e:	0553      	lsls	r3, r2, #21
 8002c10:	d527      	bpl.n	8002c62 <__ssputs_r+0x8e>
 8002c12:	4629      	mov	r1, r5
 8002c14:	f7ff ff52 	bl	8002abc <_malloc_r>
 8002c18:	4606      	mov	r6, r0
 8002c1a:	b360      	cbz	r0, 8002c76 <__ssputs_r+0xa2>
 8002c1c:	6921      	ldr	r1, [r4, #16]
 8002c1e:	464a      	mov	r2, r9
 8002c20:	f000 fae6 	bl	80031f0 <memcpy>
 8002c24:	89a3      	ldrh	r3, [r4, #12]
 8002c26:	f423 6390 	bic.w	r3, r3, #1152	@ 0x480
 8002c2a:	f043 0380 	orr.w	r3, r3, #128	@ 0x80
 8002c2e:	81a3      	strh	r3, [r4, #12]
 8002c30:	6126      	str	r6, [r4, #16]
 8002c32:	6165      	str	r5, [r4, #20]
 8002c34:	444e      	add	r6, r9
 8002c36:	eba5 0509 	sub.w	r5, r5, r9
 8002c3a:	6026      	str	r6, [r4, #0]
 8002c3c:	60a5      	str	r5, [r4, #8]
 8002c3e:	463e      	mov	r6, r7
 8002c40:	42be      	cmp	r6, r7
 8002c42:	d900      	bls.n	8002c46 <__ssputs_r+0x72>
 8002c44:	463e      	mov	r6, r7
 8002c46:	6820      	ldr	r0, [r4, #0]
 8002c48:	4632      	mov	r2, r6
 8002c4a:	4641      	mov	r1, r8
 8002c4c:	f000 faa6 	bl	800319c <memmove>
 8002c50:	68a3      	ldr	r3, [r4, #8]
 8002c52:	1b9b      	subs	r3, r3, r6
 8002c54:	60a3      	str	r3, [r4, #8]
 8002c56:	6823      	ldr	r3, [r4, #0]
 8002c58:	4433      	add	r3, r6
 8002c5a:	6023      	str	r3, [r4, #0]
 8002c5c:	2000      	movs	r0, #0
 8002c5e:	e8bd 87f0 	ldmia.w	sp!, {r4, r5, r6, r7, r8, r9, sl, pc}
 8002c62:	462a      	mov	r2, r5
 8002c64:	f000 fad2 	bl	800320c <_realloc_r>
 8002c68:	4606      	mov	r6, r0
 8002c6a:	2800      	cmp	r0, #0
 8002c6c:	d1e0      	bne.n	8002c30 <__ssputs_r+0x5c>
 8002c6e:	6921      	ldr	r1, [r4, #16]
 8002c70:	4650      	mov	r0, sl
 8002c72:	f7ff feb7 	bl	80029e4 <_free_r>
 8002c76:	230c      	movs	r3, #12
 8002c78:	f8ca 3000 	str.w	r3, [sl]
 8002c7c:	89a3      	ldrh	r3, [r4, #12]
 8002c7e:	f043 0340 	orr.w	r3, r3, #64	@ 0x40
 8002c82:	81a3      	strh	r3, [r4, #12]
 8002c84:	f04f 30ff 	mov.w	r0, #4294967295	@ 0xffffffff
 8002c88:	e7e9      	b.n	8002c5e <__ssputs_r+0x8a>
	...

08002c8c <_svfiprintf_r>:
 8002c8c:	e92d 4ff0 	stmdb	sp!, {r4, r5, r6, r7, r8, r9, sl, fp, lr}
 8002c90:	4698      	mov	r8, r3
 8002c92:	898b      	ldrh	r3, [r1, #12]
 8002c94:	061b      	lsls	r3, r3, #24
 8002c96:	b09d      	sub	sp, #116	@ 0x74
 8002c98:	4607      	mov	r7, r0
 8002c9a:	460d      	mov	r5, r1
 8002c9c:	4614      	mov	r4, r2
 8002c9e:	d510      	bpl.n	8002cc2 <_svfiprintf_r+0x36>
 8002ca0:	690b      	ldr	r3, [r1, #16]
 8002ca2:	b973      	cbnz	r3, 8002cc2 <_svfiprintf_r+0x36>
 8002ca4:	2140      	movs	r1, #64	@ 0x40
 8002ca6:	f7ff ff09 	bl	8002abc <_malloc_r>
 8002caa:	6028      	str	r0, [r5, #0]
 8002cac:	6128      	str	r0, [r5, #16]
 8002cae:	b930      	cbnz	r0, 8002cbe <_svfiprintf_r+0x32>
 8002cb0:	230c      	movs	r3, #12
 8002cb2:	603b      	str	r3, [r7, #0]
 8002cb4:	f04f 30ff 	mov.w	r0, #4294967295	@ 0xffffffff
 8002cb8:	b01d      	add	sp, #116	@ 0x74
 8002cba:	e8bd 8ff0 	ldmia.w	sp!, {r4, r5, r6, r7, r8, r9, sl, fp, pc}
 8002cbe:	2340      	movs	r3, #64	@ 0x40
 8002cc0:	616b      	str	r3, [r5, #20]
 8002cc2:	2300      	movs	r3, #0
 8002cc4:	9309      	str	r3, [sp, #36]	@ 0x24
 8002cc6:	2320      	movs	r3, #32
 8002cc8:	f88d 3029 	strb.w	r3, [sp, #41]	@ 0x29
 8002ccc:	f8cd 800c 	str.w	r8, [sp, #12]
 8002cd0:	2330      	movs	r3, #48	@ 0x30
 8002cd2:	f8df 819c 	ldr.w	r8, [pc, #412]	@ 8002e70 <_svfiprintf_r+0x1e4>
 8002cd6:	f88d 302a 	strb.w	r3, [sp, #42]	@ 0x2a
 8002cda:	f04f 0901 	mov.w	r9, #1
 8002cde:	4623      	mov	r3, r4
 8002ce0:	469a      	mov	sl, r3
 8002ce2:	f813 2b01 	ldrb.w	r2, [r3], #1
 8002ce6:	b10a      	cbz	r2, 8002cec <_svfiprintf_r+0x60>
 8002ce8:	2a25      	cmp	r2, #37	@ 0x25
 8002cea:	d1f9      	bne.n	8002ce0 <_svfiprintf_r+0x54>
 8002cec:	ebba 0b04 	subs.w	fp, sl, r4
 8002cf0:	d00b      	beq.n	8002d0a <_svfiprintf_r+0x7e>
 8002cf2:	465b      	mov	r3, fp
 8002cf4:	4622      	mov	r2, r4
 8002cf6:	4629      	mov	r1, r5
 8002cf8:	4638      	mov	r0, r7
 8002cfa:	f7ff ff6b 	bl	8002bd4 <__ssputs_r>
 8002cfe:	3001      	adds	r0, #1
 8002d00:	f000 80a7 	beq.w	8002e52 <_svfiprintf_r+0x1c6>
 8002d04:	9a09      	ldr	r2, [sp, #36]	@ 0x24
 8002d06:	445a      	add	r2, fp
 8002d08:	9209      	str	r2, [sp, #36]	@ 0x24
 8002d0a:	f89a 3000 	ldrb.w	r3, [sl]
 8002d0e:	2b00      	cmp	r3, #0
 8002d10:	f000 809f 	beq.w	8002e52 <_svfiprintf_r+0x1c6>
 8002d14:	2300      	movs	r3, #0
 8002d16:	f04f 32ff 	mov.w	r2, #4294967295	@ 0xffffffff
 8002d1a:	e9cd 2305 	strd	r2, r3, [sp, #20]
 8002d1e:	f10a 0a01 	add.w	sl, sl, #1
 8002d22:	9304      	str	r3, [sp, #16]
 8002d24:	9307      	str	r3, [sp, #28]
 8002d26:	f88d 3053 	strb.w	r3, [sp, #83]	@ 0x53
 8002d2a:	931a      	str	r3, [sp, #104]	@ 0x68
 8002d2c:	4654      	mov	r4, sl
 8002d2e:	2205      	movs	r2, #5
 8002d30:	f814 1b01 	ldrb.w	r1, [r4], #1
 8002d34:	484e      	ldr	r0, [pc, #312]	@ (8002e70 <_svfiprintf_r+0x1e4>)
 8002d36:	f7fd fa5b 	bl	80001f0 <memchr>
 8002d3a:	9a04      	ldr	r2, [sp, #16]
 8002d3c:	b9d8      	cbnz	r0, 8002d76 <_svfiprintf_r+0xea>
 8002d3e:	06d0      	lsls	r0, r2, #27
 8002d40:	bf44      	itt	mi
 8002d42:	2320      	movmi	r3, #32
 8002d44:	f88d 3053 	strbmi.w	r3, [sp, #83]	@ 0x53
 8002d48:	0711      	lsls	r1, r2, #28
 8002d4a:	bf44      	itt	mi
 8002d4c:	232b      	movmi	r3, #43	@ 0x2b
 8002d4e:	f88d 3053 	strbmi.w	r3, [sp, #83]	@ 0x53
 8002d52:	f89a 3000 	ldrb.w	r3, [sl]
 8002d56:	2b2a      	cmp	r3, #42	@ 0x2a
 8002d58:	d015      	beq.n	8002d86 <_svfiprintf_r+0xfa>
 8002d5a:	9a07      	ldr	r2, [sp, #28]
 8002d5c:	4654      	mov	r4, sl
 8002d5e:	2000      	movs	r0, #0
 8002d60:	f04f 0c0a 	mov.w	ip, #10
 8002d64:	4621      	mov	r1, r4
 8002d66:	f811 3b01 	ldrb.w	r3, [r1], #1
 8002d6a:	3b30      	subs	r3, #48	@ 0x30
 8002d6c:	2b09      	cmp	r3, #9
 8002d6e:	d94b      	bls.n	8002e08 <_svfiprintf_r+0x17c>
 8002d70:	b1b0      	cbz	r0, 8002da0 <_svfiprintf_r+0x114>
 8002d72:	9207      	str	r2, [sp, #28]
 8002d74:	e014      	b.n	8002da0 <_svfiprintf_r+0x114>
 8002d76:	eba0 0308 	sub.w	r3, r0, r8
 8002d7a:	fa09 f303 	lsl.w	r3, r9, r3
 8002d7e:	4313      	orrs	r3, r2
 8002d80:	9304      	str	r3, [sp, #16]
 8002d82:	46a2      	mov	sl, r4
 8002d84:	e7d2      	b.n	8002d2c <_svfiprintf_r+0xa0>
 8002d86:	9b03      	ldr	r3, [sp, #12]
 8002d88:	1d19      	adds	r1, r3, #4
 8002d8a:	681b      	ldr	r3, [r3, #0]
 8002d8c:	9103      	str	r1, [sp, #12]
 8002d8e:	2b00      	cmp	r3, #0
 8002d90:	bfbb      	ittet	lt
 8002d92:	425b      	neglt	r3, r3
 8002d94:	f042 0202 	orrlt.w	r2, r2, #2
 8002d98:	9307      	strge	r3, [sp, #28]
 8002d9a:	9307      	strlt	r3, [sp, #28]
 8002d9c:	bfb8      	it	lt
 8002d9e:	9204      	strlt	r2, [sp, #16]
 8002da0:	7823      	ldrb	r3, [r4, #0]
 8002da2:	2b2e      	cmp	r3, #46	@ 0x2e
 8002da4:	d10a      	bne.n	8002dbc <_svfiprintf_r+0x130>
 8002da6:	7863      	ldrb	r3, [r4, #1]
 8002da8:	2b2a      	cmp	r3, #42	@ 0x2a
 8002daa:	d132      	bne.n	8002e12 <_svfiprintf_r+0x186>
 8002dac:	9b03      	ldr	r3, [sp, #12]
 8002dae:	1d1a      	adds	r2, r3, #4
 8002db0:	681b      	ldr	r3, [r3, #0]
 8002db2:	9203      	str	r2, [sp, #12]
 8002db4:	ea43 73e3 	orr.w	r3, r3, r3, asr #31
 8002db8:	3402      	adds	r4, #2
 8002dba:	9305      	str	r3, [sp, #20]
 8002dbc:	f8df a0c0 	ldr.w	sl, [pc, #192]	@ 8002e80 <_svfiprintf_r+0x1f4>
 8002dc0:	7821      	ldrb	r1, [r4, #0]
 8002dc2:	2203      	movs	r2, #3
 8002dc4:	4650      	mov	r0, sl
 8002dc6:	f7fd fa13 	bl	80001f0 <memchr>
 8002dca:	b138      	cbz	r0, 8002ddc <_svfiprintf_r+0x150>
 8002dcc:	9b04      	ldr	r3, [sp, #16]
 8002dce:	eba0 000a 	sub.w	r0, r0, sl
 8002dd2:	2240      	movs	r2, #64	@ 0x40
 8002dd4:	4082      	lsls	r2, r0
 8002dd6:	4313      	orrs	r3, r2
 8002dd8:	3401      	adds	r4, #1
 8002dda:	9304      	str	r3, [sp, #16]
 8002ddc:	f814 1b01 	ldrb.w	r1, [r4], #1
 8002de0:	4824      	ldr	r0, [pc, #144]	@ (8002e74 <_svfiprintf_r+0x1e8>)
 8002de2:	f88d 1028 	strb.w	r1, [sp, #40]	@ 0x28
 8002de6:	2206      	movs	r2, #6
 8002de8:	f7fd fa02 	bl	80001f0 <memchr>
 8002dec:	2800      	cmp	r0, #0
 8002dee:	d036      	beq.n	8002e5e <_svfiprintf_r+0x1d2>
 8002df0:	4b21      	ldr	r3, [pc, #132]	@ (8002e78 <_svfiprintf_r+0x1ec>)
 8002df2:	bb1b      	cbnz	r3, 8002e3c <_svfiprintf_r+0x1b0>
 8002df4:	9b03      	ldr	r3, [sp, #12]
 8002df6:	3307      	adds	r3, #7
 8002df8:	f023 0307 	bic.w	r3, r3, #7
 8002dfc:	3308      	adds	r3, #8
 8002dfe:	9303      	str	r3, [sp, #12]
 8002e00:	9b09      	ldr	r3, [sp, #36]	@ 0x24
 8002e02:	4433      	add	r3, r6
 8002e04:	9309      	str	r3, [sp, #36]	@ 0x24
 8002e06:	e76a      	b.n	8002cde <_svfiprintf_r+0x52>
 8002e08:	fb0c 3202 	mla	r2, ip, r2, r3
 8002e0c:	460c      	mov	r4, r1
 8002e0e:	2001      	movs	r0, #1
 8002e10:	e7a8      	b.n	8002d64 <_svfiprintf_r+0xd8>
 8002e12:	2300      	movs	r3, #0
 8002e14:	3401      	adds	r4, #1
 8002e16:	9305      	str	r3, [sp, #20]
 8002e18:	4619      	mov	r1, r3
 8002e1a:	f04f 0c0a 	mov.w	ip, #10
 8002e1e:	4620      	mov	r0, r4
 8002e20:	f810 2b01 	ldrb.w	r2, [r0], #1
 8002e24:	3a30      	subs	r2, #48	@ 0x30
 8002e26:	2a09      	cmp	r2, #9
 8002e28:	d903      	bls.n	8002e32 <_svfiprintf_r+0x1a6>
 8002e2a:	2b00      	cmp	r3, #0
 8002e2c:	d0c6      	beq.n	8002dbc <_svfiprintf_r+0x130>
 8002e2e:	9105      	str	r1, [sp, #20]
 8002e30:	e7c4      	b.n	8002dbc <_svfiprintf_r+0x130>
 8002e32:	fb0c 2101 	mla	r1, ip, r1, r2
 8002e36:	4604      	mov	r4, r0
 8002e38:	2301      	movs	r3, #1
 8002e3a:	e7f0      	b.n	8002e1e <_svfiprintf_r+0x192>
 8002e3c:	ab03      	add	r3, sp, #12
 8002e3e:	9300      	str	r3, [sp, #0]
 8002e40:	462a      	mov	r2, r5
 8002e42:	4b0e      	ldr	r3, [pc, #56]	@ (8002e7c <_svfiprintf_r+0x1f0>)
 8002e44:	a904      	add	r1, sp, #16
 8002e46:	4638      	mov	r0, r7
 8002e48:	f3af 8000 	nop.w
 8002e4c:	1c42      	adds	r2, r0, #1
 8002e4e:	4606      	mov	r6, r0
 8002e50:	d1d6      	bne.n	8002e00 <_svfiprintf_r+0x174>
 8002e52:	89ab      	ldrh	r3, [r5, #12]
 8002e54:	065b      	lsls	r3, r3, #25
 8002e56:	f53f af2d 	bmi.w	8002cb4 <_svfiprintf_r+0x28>
 8002e5a:	9809      	ldr	r0, [sp, #36]	@ 0x24
 8002e5c:	e72c      	b.n	8002cb8 <_svfiprintf_r+0x2c>
 8002e5e:	ab03      	add	r3, sp, #12
 8002e60:	9300      	str	r3, [sp, #0]
 8002e62:	462a      	mov	r2, r5
 8002e64:	4b05      	ldr	r3, [pc, #20]	@ (8002e7c <_svfiprintf_r+0x1f0>)
 8002e66:	a904      	add	r1, sp, #16
 8002e68:	4638      	mov	r0, r7
 8002e6a:	f000 f879 	bl	8002f60 <_printf_i>
 8002e6e:	e7ed      	b.n	8002e4c <_svfiprintf_r+0x1c0>
 8002e70:	080032d5 	.word	0x080032d5
 8002e74:	080032df 	.word	0x080032df
 8002e78:	00000000 	.word	0x00000000
 8002e7c:	08002bd5 	.word	0x08002bd5
 8002e80:	080032db 	.word	0x080032db

08002e84 <_printf_common>:
 8002e84:	e92d 47f0 	stmdb	sp!, {r4, r5, r6, r7, r8, r9, sl, lr}
 8002e88:	4616      	mov	r6, r2
 8002e8a:	4698      	mov	r8, r3
 8002e8c:	688a      	ldr	r2, [r1, #8]
 8002e8e:	690b      	ldr	r3, [r1, #16]
 8002e90:	f8dd 9020 	ldr.w	r9, [sp, #32]
 8002e94:	4293      	cmp	r3, r2
 8002e96:	bfb8      	it	lt
 8002e98:	4613      	movlt	r3, r2
 8002e9a:	6033      	str	r3, [r6, #0]
 8002e9c:	f891 2043 	ldrb.w	r2, [r1, #67]	@ 0x43
 8002ea0:	4607      	mov	r7, r0
 8002ea2:	460c      	mov	r4, r1
 8002ea4:	b10a      	cbz	r2, 8002eaa <_printf_common+0x26>
 8002ea6:	3301      	adds	r3, #1
 8002ea8:	6033      	str	r3, [r6, #0]
 8002eaa:	6823      	ldr	r3, [r4, #0]
 8002eac:	0699      	lsls	r1, r3, #26
 8002eae:	bf42      	ittt	mi
 8002eb0:	6833      	ldrmi	r3, [r6, #0]
 8002eb2:	3302      	addmi	r3, #2
 8002eb4:	6033      	strmi	r3, [r6, #0]
 8002eb6:	6825      	ldr	r5, [r4, #0]
 8002eb8:	f015 0506 	ands.w	r5, r5, #6
 8002ebc:	d106      	bne.n	8002ecc <_printf_common+0x48>
 8002ebe:	f104 0a19 	add.w	sl, r4, #25
 8002ec2:	68e3      	ldr	r3, [r4, #12]
 8002ec4:	6832      	ldr	r2, [r6, #0]
 8002ec6:	1a9b      	subs	r3, r3, r2
 8002ec8:	42ab      	cmp	r3, r5
 8002eca:	dc26      	bgt.n	8002f1a <_printf_common+0x96>
 8002ecc:	f894 3043 	ldrb.w	r3, [r4, #67]	@ 0x43
 8002ed0:	6822      	ldr	r2, [r4, #0]
 8002ed2:	3b00      	subs	r3, #0
 8002ed4:	bf18      	it	ne
 8002ed6:	2301      	movne	r3, #1
 8002ed8:	0692      	lsls	r2, r2, #26
 8002eda:	d42b      	bmi.n	8002f34 <_printf_common+0xb0>
 8002edc:	f104 0243 	add.w	r2, r4, #67	@ 0x43
 8002ee0:	4641      	mov	r1, r8
 8002ee2:	4638      	mov	r0, r7
 8002ee4:	47c8      	blx	r9
 8002ee6:	3001      	adds	r0, #1
 8002ee8:	d01e      	beq.n	8002f28 <_printf_common+0xa4>
 8002eea:	6823      	ldr	r3, [r4, #0]
 8002eec:	6922      	ldr	r2, [r4, #16]
 8002eee:	f003 0306 	and.w	r3, r3, #6
 8002ef2:	2b04      	cmp	r3, #4
 8002ef4:	bf02      	ittt	eq
 8002ef6:	68e5      	ldreq	r5, [r4, #12]
 8002ef8:	6833      	ldreq	r3, [r6, #0]
 8002efa:	1aed      	subeq	r5, r5, r3
 8002efc:	68a3      	ldr	r3, [r4, #8]
 8002efe:	bf0c      	ite	eq
 8002f00:	ea25 75e5 	biceq.w	r5, r5, r5, asr #31
 8002f04:	2500      	movne	r5, #0
 8002f06:	4293      	cmp	r3, r2
 8002f08:	bfc4      	itt	gt
 8002f0a:	1a9b      	subgt	r3, r3, r2
 8002f0c:	18ed      	addgt	r5, r5, r3
 8002f0e:	2600      	movs	r6, #0
 8002f10:	341a      	adds	r4, #26
 8002f12:	42b5      	cmp	r5, r6
 8002f14:	d11a      	bne.n	8002f4c <_printf_common+0xc8>
 8002f16:	2000      	movs	r0, #0
 8002f18:	e008      	b.n	8002f2c <_printf_common+0xa8>
 8002f1a:	2301      	movs	r3, #1
 8002f1c:	4652      	mov	r2, sl
 8002f1e:	4641      	mov	r1, r8
 8002f20:	4638      	mov	r0, r7
 8002f22:	47c8      	blx	r9
 8002f24:	3001      	adds	r0, #1
 8002f26:	d103      	bne.n	8002f30 <_printf_common+0xac>
 8002f28:	f04f 30ff 	mov.w	r0, #4294967295	@ 0xffffffff
 8002f2c:	e8bd 87f0 	ldmia.w	sp!, {r4, r5, r6, r7, r8, r9, sl, pc}
 8002f30:	3501      	adds	r5, #1
 8002f32:	e7c6      	b.n	8002ec2 <_printf_common+0x3e>
 8002f34:	18e1      	adds	r1, r4, r3
 8002f36:	1c5a      	adds	r2, r3, #1
 8002f38:	2030      	movs	r0, #48	@ 0x30
 8002f3a:	f881 0043 	strb.w	r0, [r1, #67]	@ 0x43
 8002f3e:	4422      	add	r2, r4
 8002f40:	f894 1045 	ldrb.w	r1, [r4, #69]	@ 0x45
 8002f44:	f882 1043 	strb.w	r1, [r2, #67]	@ 0x43
 8002f48:	3302      	adds	r3, #2
 8002f4a:	e7c7      	b.n	8002edc <_printf_common+0x58>
 8002f4c:	2301      	movs	r3, #1
 8002f4e:	4622      	mov	r2, r4
 8002f50:	4641      	mov	r1, r8
 8002f52:	4638      	mov	r0, r7
 8002f54:	47c8      	blx	r9
 8002f56:	3001      	adds	r0, #1
 8002f58:	d0e6      	beq.n	8002f28 <_printf_common+0xa4>
 8002f5a:	3601      	adds	r6, #1
 8002f5c:	e7d9      	b.n	8002f12 <_printf_common+0x8e>
	...

08002f60 <_printf_i>:
 8002f60:	e92d 47ff 	stmdb	sp!, {r0, r1, r2, r3, r4, r5, r6, r7, r8, r9, sl, lr}
 8002f64:	7e0f      	ldrb	r7, [r1, #24]
 8002f66:	9e0c      	ldr	r6, [sp, #48]	@ 0x30
 8002f68:	2f78      	cmp	r7, #120	@ 0x78
 8002f6a:	4691      	mov	r9, r2
 8002f6c:	4680      	mov	r8, r0
 8002f6e:	460c      	mov	r4, r1
 8002f70:	469a      	mov	sl, r3
 8002f72:	f101 0243 	add.w	r2, r1, #67	@ 0x43
 8002f76:	d807      	bhi.n	8002f88 <_printf_i+0x28>
 8002f78:	2f62      	cmp	r7, #98	@ 0x62
 8002f7a:	d80a      	bhi.n	8002f92 <_printf_i+0x32>
 8002f7c:	2f00      	cmp	r7, #0
 8002f7e:	f000 80d1 	beq.w	8003124 <_printf_i+0x1c4>
 8002f82:	2f58      	cmp	r7, #88	@ 0x58
 8002f84:	f000 80b8 	beq.w	80030f8 <_printf_i+0x198>
 8002f88:	f104 0642 	add.w	r6, r4, #66	@ 0x42
 8002f8c:	f884 7042 	strb.w	r7, [r4, #66]	@ 0x42
 8002f90:	e03a      	b.n	8003008 <_printf_i+0xa8>
 8002f92:	f1a7 0363 	sub.w	r3, r7, #99	@ 0x63
 8002f96:	2b15      	cmp	r3, #21
 8002f98:	d8f6      	bhi.n	8002f88 <_printf_i+0x28>
 8002f9a:	a101      	add	r1, pc, #4	@ (adr r1, 8002fa0 <_printf_i+0x40>)
 8002f9c:	f851 f023 	ldr.w	pc, [r1, r3, lsl #2]
 8002fa0:	08002ff9 	.word	0x08002ff9
 8002fa4:	0800300d 	.word	0x0800300d
 8002fa8:	08002f89 	.word	0x08002f89
 8002fac:	08002f89 	.word	0x08002f89
 8002fb0:	08002f89 	.word	0x08002f89
 8002fb4:	08002f89 	.word	0x08002f89
 8002fb8:	0800300d 	.word	0x0800300d
 8002fbc:	08002f89 	.word	0x08002f89
 8002fc0:	08002f89 	.word	0x08002f89
 8002fc4:	08002f89 	.word	0x08002f89
 8002fc8:	08002f89 	.word	0x08002f89
 8002fcc:	0800310b 	.word	0x0800310b
 8002fd0:	08003037 	.word	0x08003037
 8002fd4:	080030c5 	.word	0x080030c5
 8002fd8:	08002f89 	.word	0x08002f89
 8002fdc:	08002f89 	.word	0x08002f89
 8002fe0:	0800312d 	.word	0x0800312d
 8002fe4:	08002f89 	.word	0x08002f89
 8002fe8:	08003037 	.word	0x08003037
 8002fec:	08002f89 	.word	0x08002f89
 8002ff0:	08002f89 	.word	0x08002f89
 8002ff4:	080030cd 	.word	0x080030cd
 8002ff8:	6833      	ldr	r3, [r6, #0]
 8002ffa:	1d1a      	adds	r2, r3, #4
 8002ffc:	681b      	ldr	r3, [r3, #0]
 8002ffe:	6032      	str	r2, [r6, #0]
 8003000:	f104 0642 	add.w	r6, r4, #66	@ 0x42
 8003004:	f884 3042 	strb.w	r3, [r4, #66]	@ 0x42
 8003008:	2301      	movs	r3, #1
 800300a:	e09c      	b.n	8003146 <_printf_i+0x1e6>
 800300c:	6833      	ldr	r3, [r6, #0]
 800300e:	6820      	ldr	r0, [r4, #0]
 8003010:	1d19      	adds	r1, r3, #4
 8003012:	6031      	str	r1, [r6, #0]
 8003014:	0606      	lsls	r6, r0, #24
 8003016:	d501      	bpl.n	800301c <_printf_i+0xbc>
 8003018:	681d      	ldr	r5, [r3, #0]
 800301a:	e003      	b.n	8003024 <_printf_i+0xc4>
 800301c:	0645      	lsls	r5, r0, #25
 800301e:	d5fb      	bpl.n	8003018 <_printf_i+0xb8>
 8003020:	f9b3 5000 	ldrsh.w	r5, [r3]
 8003024:	2d00      	cmp	r5, #0
 8003026:	da03      	bge.n	8003030 <_printf_i+0xd0>
 8003028:	232d      	movs	r3, #45	@ 0x2d
 800302a:	426d      	negs	r5, r5
 800302c:	f884 3043 	strb.w	r3, [r4, #67]	@ 0x43
 8003030:	4858      	ldr	r0, [pc, #352]	@ (8003194 <_printf_i+0x234>)
 8003032:	230a      	movs	r3, #10
 8003034:	e011      	b.n	800305a <_printf_i+0xfa>
 8003036:	6821      	ldr	r1, [r4, #0]
 8003038:	6833      	ldr	r3, [r6, #0]
 800303a:	0608      	lsls	r0, r1, #24
 800303c:	f853 5b04 	ldr.w	r5, [r3], #4
 8003040:	d402      	bmi.n	8003048 <_printf_i+0xe8>
 8003042:	0649      	lsls	r1, r1, #25
 8003044:	bf48      	it	mi
 8003046:	b2ad      	uxthmi	r5, r5
 8003048:	2f6f      	cmp	r7, #111	@ 0x6f
 800304a:	4852      	ldr	r0, [pc, #328]	@ (8003194 <_printf_i+0x234>)
 800304c:	6033      	str	r3, [r6, #0]
 800304e:	bf14      	ite	ne
 8003050:	230a      	movne	r3, #10
 8003052:	2308      	moveq	r3, #8
 8003054:	2100      	movs	r1, #0
 8003056:	f884 1043 	strb.w	r1, [r4, #67]	@ 0x43
 800305a:	6866      	ldr	r6, [r4, #4]
 800305c:	60a6      	str	r6, [r4, #8]
 800305e:	2e00      	cmp	r6, #0
 8003060:	db05      	blt.n	800306e <_printf_i+0x10e>
 8003062:	6821      	ldr	r1, [r4, #0]
 8003064:	432e      	orrs	r6, r5
 8003066:	f021 0104 	bic.w	r1, r1, #4
 800306a:	6021      	str	r1, [r4, #0]
 800306c:	d04b      	beq.n	8003106 <_printf_i+0x1a6>
 800306e:	4616      	mov	r6, r2
 8003070:	fbb5 f1f3 	udiv	r1, r5, r3
 8003074:	fb03 5711 	mls	r7, r3, r1, r5
 8003078:	5dc7      	ldrb	r7, [r0, r7]
 800307a:	f806 7d01 	strb.w	r7, [r6, #-1]!
 800307e:	462f      	mov	r7, r5
 8003080:	42bb      	cmp	r3, r7
 8003082:	460d      	mov	r5, r1
 8003084:	d9f4      	bls.n	8003070 <_printf_i+0x110>
 8003086:	2b08      	cmp	r3, #8
 8003088:	d10b      	bne.n	80030a2 <_printf_i+0x142>
 800308a:	6823      	ldr	r3, [r4, #0]
 800308c:	07df      	lsls	r7, r3, #31
 800308e:	d508      	bpl.n	80030a2 <_printf_i+0x142>
 8003090:	6923      	ldr	r3, [r4, #16]
 8003092:	6861      	ldr	r1, [r4, #4]
 8003094:	4299      	cmp	r1, r3
 8003096:	bfde      	ittt	le
 8003098:	2330      	movle	r3, #48	@ 0x30
 800309a:	f806 3c01 	strble.w	r3, [r6, #-1]
 800309e:	f106 36ff 	addle.w	r6, r6, #4294967295	@ 0xffffffff
 80030a2:	1b92      	subs	r2, r2, r6
 80030a4:	6122      	str	r2, [r4, #16]
 80030a6:	f8cd a000 	str.w	sl, [sp]
 80030aa:	464b      	mov	r3, r9
 80030ac:	aa03      	add	r2, sp, #12
 80030ae:	4621      	mov	r1, r4
 80030b0:	4640      	mov	r0, r8
 80030b2:	f7ff fee7 	bl	8002e84 <_printf_common>
 80030b6:	3001      	adds	r0, #1
 80030b8:	d14a      	bne.n	8003150 <_printf_i+0x1f0>
 80030ba:	f04f 30ff 	mov.w	r0, #4294967295	@ 0xffffffff
 80030be:	b004      	add	sp, #16
 80030c0:	e8bd 87f0 	ldmia.w	sp!, {r4, r5, r6, r7, r8, r9, sl, pc}
 80030c4:	6823      	ldr	r3, [r4, #0]
 80030c6:	f043 0320 	orr.w	r3, r3, #32
 80030ca:	6023      	str	r3, [r4, #0]
 80030cc:	4832      	ldr	r0, [pc, #200]	@ (8003198 <_printf_i+0x238>)
 80030ce:	2778      	movs	r7, #120	@ 0x78
 80030d0:	f884 7045 	strb.w	r7, [r4, #69]	@ 0x45
 80030d4:	6823      	ldr	r3, [r4, #0]
 80030d6:	6831      	ldr	r1, [r6, #0]
 80030d8:	061f      	lsls	r7, r3, #24
 80030da:	f851 5b04 	ldr.w	r5, [r1], #4
 80030de:	d402      	bmi.n	80030e6 <_printf_i+0x186>
 80030e0:	065f      	lsls	r7, r3, #25
 80030e2:	bf48      	it	mi
 80030e4:	b2ad      	uxthmi	r5, r5
 80030e6:	6031      	str	r1, [r6, #0]
 80030e8:	07d9      	lsls	r1, r3, #31
 80030ea:	bf44      	itt	mi
 80030ec:	f043 0320 	orrmi.w	r3, r3, #32
 80030f0:	6023      	strmi	r3, [r4, #0]
 80030f2:	b11d      	cbz	r5, 80030fc <_printf_i+0x19c>
 80030f4:	2310      	movs	r3, #16
 80030f6:	e7ad      	b.n	8003054 <_printf_i+0xf4>
 80030f8:	4826      	ldr	r0, [pc, #152]	@ (8003194 <_printf_i+0x234>)
 80030fa:	e7e9      	b.n	80030d0 <_printf_i+0x170>
 80030fc:	6823      	ldr	r3, [r4, #0]
 80030fe:	f023 0320 	bic.w	r3, r3, #32
 8003102:	6023      	str	r3, [r4, #0]
 8003104:	e7f6      	b.n	80030f4 <_printf_i+0x194>
 8003106:	4616      	mov	r6, r2
 8003108:	e7bd      	b.n	8003086 <_printf_i+0x126>
 800310a:	6833      	ldr	r3, [r6, #0]
 800310c:	6825      	ldr	r5, [r4, #0]
 800310e:	6961      	ldr	r1, [r4, #20]
 8003110:	1d18      	adds	r0, r3, #4
 8003112:	6030      	str	r0, [r6, #0]
 8003114:	062e      	lsls	r6, r5, #24
 8003116:	681b      	ldr	r3, [r3, #0]
 8003118:	d501      	bpl.n	800311e <_printf_i+0x1be>
 800311a:	6019      	str	r1, [r3, #0]
 800311c:	e002      	b.n	8003124 <_printf_i+0x1c4>
 800311e:	0668      	lsls	r0, r5, #25
 8003120:	d5fb      	bpl.n	800311a <_printf_i+0x1ba>
 8003122:	8019      	strh	r1, [r3, #0]
 8003124:	2300      	movs	r3, #0
 8003126:	6123      	str	r3, [r4, #16]
 8003128:	4616      	mov	r6, r2
 800312a:	e7bc      	b.n	80030a6 <_printf_i+0x146>
 800312c:	6833      	ldr	r3, [r6, #0]
 800312e:	1d1a      	adds	r2, r3, #4
 8003130:	6032      	str	r2, [r6, #0]
 8003132:	681e      	ldr	r6, [r3, #0]
 8003134:	6862      	ldr	r2, [r4, #4]
 8003136:	2100      	movs	r1, #0
 8003138:	4630      	mov	r0, r6
 800313a:	f7fd f859 	bl	80001f0 <memchr>
 800313e:	b108      	cbz	r0, 8003144 <_printf_i+0x1e4>
 8003140:	1b80      	subs	r0, r0, r6
 8003142:	6060      	str	r0, [r4, #4]
 8003144:	6863      	ldr	r3, [r4, #4]
 8003146:	6123      	str	r3, [r4, #16]
 8003148:	2300      	movs	r3, #0
 800314a:	f884 3043 	strb.w	r3, [r4, #67]	@ 0x43
 800314e:	e7aa      	b.n	80030a6 <_printf_i+0x146>
 8003150:	6923      	ldr	r3, [r4, #16]
 8003152:	4632      	mov	r2, r6
 8003154:	4649      	mov	r1, r9
 8003156:	4640      	mov	r0, r8
 8003158:	47d0      	blx	sl
 800315a:	3001      	adds	r0, #1
 800315c:	d0ad      	beq.n	80030ba <_printf_i+0x15a>
 800315e:	6823      	ldr	r3, [r4, #0]
 8003160:	079b      	lsls	r3, r3, #30
 8003162:	d413      	bmi.n	800318c <_printf_i+0x22c>
 8003164:	68e0      	ldr	r0, [r4, #12]
 8003166:	9b03      	ldr	r3, [sp, #12]
 8003168:	4298      	cmp	r0, r3
 800316a:	bfb8      	it	lt
 800316c:	4618      	movlt	r0, r3
 800316e:	e7a6      	b.n	80030be <_printf_i+0x15e>
 8003170:	2301      	movs	r3, #1
 8003172:	4632      	mov	r2, r6
 8003174:	4649      	mov	r1, r9
 8003176:	4640      	mov	r0, r8
 8003178:	47d0      	blx	sl
 800317a:	3001      	adds	r0, #1
 800317c:	d09d      	beq.n	80030ba <_printf_i+0x15a>
 800317e:	3501      	adds	r5, #1
 8003180:	68e3      	ldr	r3, [r4, #12]
 8003182:	9903      	ldr	r1, [sp, #12]
 8003184:	1a5b      	subs	r3, r3, r1
 8003186:	42ab      	cmp	r3, r5
 8003188:	dcf2      	bgt.n	8003170 <_printf_i+0x210>
 800318a:	e7eb      	b.n	8003164 <_printf_i+0x204>
 800318c:	2500      	movs	r5, #0
 800318e:	f104 0619 	add.w	r6, r4, #25
 8003192:	e7f5      	b.n	8003180 <_printf_i+0x220>
 8003194:	080032e6 	.word	0x080032e6
 8003198:	080032f7 	.word	0x080032f7

0800319c <memmove>:
 800319c:	4288      	cmp	r0, r1
 800319e:	b510      	push	{r4, lr}
 80031a0:	eb01 0402 	add.w	r4, r1, r2
 80031a4:	d902      	bls.n	80031ac <memmove+0x10>
 80031a6:	4284      	cmp	r4, r0
 80031a8:	4623      	mov	r3, r4
 80031aa:	d807      	bhi.n	80031bc <memmove+0x20>
 80031ac:	1e43      	subs	r3, r0, #1
 80031ae:	42a1      	cmp	r1, r4
 80031b0:	d008      	beq.n	80031c4 <memmove+0x28>
 80031b2:	f811 2b01 	ldrb.w	r2, [r1], #1
 80031b6:	f803 2f01 	strb.w	r2, [r3, #1]!
 80031ba:	e7f8      	b.n	80031ae <memmove+0x12>
 80031bc:	4402      	add	r2, r0
 80031be:	4601      	mov	r1, r0
 80031c0:	428a      	cmp	r2, r1
 80031c2:	d100      	bne.n	80031c6 <memmove+0x2a>
 80031c4:	bd10      	pop	{r4, pc}
 80031c6:	f813 4d01 	ldrb.w	r4, [r3, #-1]!
 80031ca:	f802 4d01 	strb.w	r4, [r2, #-1]!
 80031ce:	e7f7      	b.n	80031c0 <memmove+0x24>

080031d0 <_sbrk_r>:
 80031d0:	b538      	push	{r3, r4, r5, lr}
 80031d2:	4d06      	ldr	r5, [pc, #24]	@ (80031ec <_sbrk_r+0x1c>)
 80031d4:	2300      	movs	r3, #0
 80031d6:	4604      	mov	r4, r0
 80031d8:	4608      	mov	r0, r1
 80031da:	602b      	str	r3, [r5, #0]
 80031dc:	f7fd fc84 	bl	8000ae8 <_sbrk>
 80031e0:	1c43      	adds	r3, r0, #1
 80031e2:	d102      	bne.n	80031ea <_sbrk_r+0x1a>
 80031e4:	682b      	ldr	r3, [r5, #0]
 80031e6:	b103      	cbz	r3, 80031ea <_sbrk_r+0x1a>
 80031e8:	6023      	str	r3, [r4, #0]
 80031ea:	bd38      	pop	{r3, r4, r5, pc}
 80031ec:	20000340 	.word	0x20000340

080031f0 <memcpy>:
 80031f0:	440a      	add	r2, r1
 80031f2:	4291      	cmp	r1, r2
 80031f4:	f100 33ff 	add.w	r3, r0, #4294967295	@ 0xffffffff
 80031f8:	d100      	bne.n	80031fc <memcpy+0xc>
 80031fa:	4770      	bx	lr
 80031fc:	b510      	push	{r4, lr}
 80031fe:	f811 4b01 	ldrb.w	r4, [r1], #1
 8003202:	f803 4f01 	strb.w	r4, [r3, #1]!
 8003206:	4291      	cmp	r1, r2
 8003208:	d1f9      	bne.n	80031fe <memcpy+0xe>
 800320a:	bd10      	pop	{r4, pc}

0800320c <_realloc_r>:
 800320c:	e92d 41f0 	stmdb	sp!, {r4, r5, r6, r7, r8, lr}
 8003210:	4607      	mov	r7, r0
 8003212:	4614      	mov	r4, r2
 8003214:	460d      	mov	r5, r1
 8003216:	b921      	cbnz	r1, 8003222 <_realloc_r+0x16>
 8003218:	e8bd 41f0 	ldmia.w	sp!, {r4, r5, r6, r7, r8, lr}
 800321c:	4611      	mov	r1, r2
 800321e:	f7ff bc4d 	b.w	8002abc <_malloc_r>
 8003222:	b92a      	cbnz	r2, 8003230 <_realloc_r+0x24>
 8003224:	f7ff fbde 	bl	80029e4 <_free_r>
 8003228:	4625      	mov	r5, r4
 800322a:	4628      	mov	r0, r5
 800322c:	e8bd 81f0 	ldmia.w	sp!, {r4, r5, r6, r7, r8, pc}
 8003230:	f000 f81a 	bl	8003268 <_malloc_usable_size_r>
 8003234:	4284      	cmp	r4, r0
 8003236:	4606      	mov	r6, r0
 8003238:	d802      	bhi.n	8003240 <_realloc_r+0x34>
 800323a:	ebb4 0f50 	cmp.w	r4, r0, lsr #1
 800323e:	d8f4      	bhi.n	800322a <_realloc_r+0x1e>
 8003240:	4621      	mov	r1, r4
 8003242:	4638      	mov	r0, r7
 8003244:	f7ff fc3a 	bl	8002abc <_malloc_r>
 8003248:	4680      	mov	r8, r0
 800324a:	b908      	cbnz	r0, 8003250 <_realloc_r+0x44>
 800324c:	4645      	mov	r5, r8
 800324e:	e7ec      	b.n	800322a <_realloc_r+0x1e>
 8003250:	42b4      	cmp	r4, r6
 8003252:	4622      	mov	r2, r4
 8003254:	4629      	mov	r1, r5
 8003256:	bf28      	it	cs
 8003258:	4632      	movcs	r2, r6
 800325a:	f7ff ffc9 	bl	80031f0 <memcpy>
 800325e:	4629      	mov	r1, r5
 8003260:	4638      	mov	r0, r7
 8003262:	f7ff fbbf 	bl	80029e4 <_free_r>
 8003266:	e7f1      	b.n	800324c <_realloc_r+0x40>

08003268 <_malloc_usable_size_r>:
 8003268:	f851 3c04 	ldr.w	r3, [r1, #-4]
 800326c:	1f18      	subs	r0, r3, #4
 800326e:	2b00      	cmp	r3, #0
 8003270:	bfbc      	itt	lt
 8003272:	580b      	ldrlt	r3, [r1, r0]
 8003274:	18c0      	addlt	r0, r0, r3
 8003276:	4770      	bx	lr

08003278 <_init>:
 8003278:	b5f8      	push	{r3, r4, r5, r6, r7, lr}
 800327a:	bf00      	nop
 800327c:	bcf8      	pop	{r3, r4, r5, r6, r7}
 800327e:	bc08      	pop	{r3}
 8003280:	469e      	mov	lr, r3
 8003282:	4770      	bx	lr

08003284 <_fini>:
 8003284:	b5f8      	push	{r3, r4, r5, r6, r7, lr}
 8003286:	bf00      	nop
 8003288:	bcf8      	pop	{r3, r4, r5, r6, r7}
 800328a:	bc08      	pop	{r3}
 800328c:	469e      	mov	lr, r3
 800328e:	4770      	bx	lr
